	.file	"main.cpp"
	.text
	.section	.text$_ZnwyPv,"x"
	.linkonce discard
	.globl	_ZnwyPv
	.def	_ZnwyPv;	.scl	2;	.type	32;	.endef
	.seh_proc	_ZnwyPv
_ZnwyPv:
	pushq	%rbp
	.seh_pushreg	%rbp
	movq	%rsp, %rbp
	.seh_setframe	%rbp, 0
	.seh_endprologue
	movq	%rcx, 16(%rbp)
	movq	%rdx, 24(%rbp)
	movq	24(%rbp), %rax
	popq	%rbp
	ret
	.seh_endproc
	.section	.text$_ZdlPvS_,"x"
	.linkonce discard
	.globl	_ZdlPvS_
	.def	_ZdlPvS_;	.scl	2;	.type	32;	.endef
	.seh_proc	_ZdlPvS_
_ZdlPvS_:
	pushq	%rbp
	.seh_pushreg	%rbp
	movq	%rsp, %rbp
	.seh_setframe	%rbp, 0
	.seh_endprologue
	movq	%rcx, 16(%rbp)
	movq	%rdx, 24(%rbp)
	nop
	popq	%rbp
	ret
	.seh_endproc
	.section .rdata,"dr"
_ZStL19piecewise_construct:
	.space 1
	.section	.text$_ZSt4__lgx,"x"
	.linkonce discard
	.globl	_ZSt4__lgx
	.def	_ZSt4__lgx;	.scl	2;	.type	32;	.endef
	.seh_proc	_ZSt4__lgx
_ZSt4__lgx:
	pushq	%rbp
	.seh_pushreg	%rbp
	movq	%rsp, %rbp
	.seh_setframe	%rbp, 0
	.seh_endprologue
	movq	%rcx, 16(%rbp)
	movq	16(%rbp), %rax
	bsrq	%rax, %rax
	xorq	$63, %rax
	cltq
	movl	$63, %edx
	subq	%rax, %rdx
	movq	%rdx, %rax
	popq	%rbp
	ret
	.seh_endproc
	.text
	.def	_ZL18__gthread_active_pv;	.scl	3;	.type	32;	.endef
	.seh_proc	_ZL18__gthread_active_pv
_ZL18__gthread_active_pv:
	.seh_endprologue
	movl	$1, %eax
	ret
	.seh_endproc
	.def	_ZN9__gnu_cxxL18__exchange_and_addEPVii;	.scl	3;	.type	32;	.endef
	.seh_proc	_ZN9__gnu_cxxL18__exchange_and_addEPVii
_ZN9__gnu_cxxL18__exchange_and_addEPVii:
	pushq	%rbp
	.seh_pushreg	%rbp
	movq	%rsp, %rbp
	.seh_setframe	%rbp, 0
	.seh_endprologue
	movq	%rcx, 16(%rbp)
	movl	%edx, 24(%rbp)
	movl	24(%rbp), %edx
	movq	16(%rbp), %rax
	lock xaddl	%edx, (%rax)
	movl	%edx, %eax
	popq	%rbp
	ret
	.seh_endproc
	.def	_ZN9__gnu_cxxL12__atomic_addEPVii;	.scl	3;	.type	32;	.endef
	.seh_proc	_ZN9__gnu_cxxL12__atomic_addEPVii
_ZN9__gnu_cxxL12__atomic_addEPVii:
	pushq	%rbp
	.seh_pushreg	%rbp
	movq	%rsp, %rbp
	.seh_setframe	%rbp, 0
	.seh_endprologue
	movq	%rcx, 16(%rbp)
	movl	%edx, 24(%rbp)
	movl	24(%rbp), %edx
	movq	16(%rbp), %rax
	lock addl	%edx, (%rax)
	nop
	popq	%rbp
	ret
	.seh_endproc
	.def	_ZN9__gnu_cxxL25__exchange_and_add_singleEPii;	.scl	3;	.type	32;	.endef
	.seh_proc	_ZN9__gnu_cxxL25__exchange_and_add_singleEPii
_ZN9__gnu_cxxL25__exchange_and_add_singleEPii:
	pushq	%rbp
	.seh_pushreg	%rbp
	movq	%rsp, %rbp
	.seh_setframe	%rbp, 0
	subq	$16, %rsp
	.seh_stackalloc	16
	.seh_endprologue
	movq	%rcx, 16(%rbp)
	movl	%edx, 24(%rbp)
	movq	16(%rbp), %rax
	movl	(%rax), %eax
	movl	%eax, -4(%rbp)
	movq	16(%rbp), %rax
	movl	(%rax), %edx
	movl	24(%rbp), %eax
	addl	%eax, %edx
	movq	16(%rbp), %rax
	movl	%edx, (%rax)
	movl	-4(%rbp), %eax
	addq	$16, %rsp
	popq	%rbp
	ret
	.seh_endproc
	.def	_ZN9__gnu_cxxL19__atomic_add_singleEPii;	.scl	3;	.type	32;	.endef
	.seh_proc	_ZN9__gnu_cxxL19__atomic_add_singleEPii
_ZN9__gnu_cxxL19__atomic_add_singleEPii:
	pushq	%rbp
	.seh_pushreg	%rbp
	movq	%rsp, %rbp
	.seh_setframe	%rbp, 0
	.seh_endprologue
	movq	%rcx, 16(%rbp)
	movl	%edx, 24(%rbp)
	movq	16(%rbp), %rax
	movl	(%rax), %edx
	movl	24(%rbp), %eax
	addl	%eax, %edx
	movq	16(%rbp), %rax
	movl	%edx, (%rax)
	nop
	popq	%rbp
	ret
	.seh_endproc
	.def	_ZN9__gnu_cxxL27__exchange_and_add_dispatchEPii;	.scl	3;	.type	32;	.endef
	.seh_proc	_ZN9__gnu_cxxL27__exchange_and_add_dispatchEPii
_ZN9__gnu_cxxL27__exchange_and_add_dispatchEPii:
	pushq	%rbp
	.seh_pushreg	%rbp
	movq	%rsp, %rbp
	.seh_setframe	%rbp, 0
	subq	$32, %rsp
	.seh_stackalloc	32
	.seh_endprologue
	movq	%rcx, 16(%rbp)
	movl	%edx, 24(%rbp)
	call	_ZL18__gthread_active_pv
	testl	%eax, %eax
	setne	%al
	testb	%al, %al
	je	.L15
	movl	24(%rbp), %eax
	movl	%eax, %edx
	movq	16(%rbp), %rcx
	call	_ZN9__gnu_cxxL18__exchange_and_addEPVii
	jmp	.L16
.L15:
	movl	24(%rbp), %eax
	movl	%eax, %edx
	movq	16(%rbp), %rcx
	call	_ZN9__gnu_cxxL25__exchange_and_add_singleEPii
	nop
.L16:
	addq	$32, %rsp
	popq	%rbp
	ret
	.seh_endproc
	.def	_ZN9__gnu_cxxL21__atomic_add_dispatchEPii;	.scl	3;	.type	32;	.endef
	.seh_proc	_ZN9__gnu_cxxL21__atomic_add_dispatchEPii
_ZN9__gnu_cxxL21__atomic_add_dispatchEPii:
	pushq	%rbp
	.seh_pushreg	%rbp
	movq	%rsp, %rbp
	.seh_setframe	%rbp, 0
	subq	$32, %rsp
	.seh_stackalloc	32
	.seh_endprologue
	movq	%rcx, 16(%rbp)
	movl	%edx, 24(%rbp)
	call	_ZL18__gthread_active_pv
	testl	%eax, %eax
	setne	%al
	testb	%al, %al
	je	.L18
	movl	24(%rbp), %eax
	movl	%eax, %edx
	movq	16(%rbp), %rcx
	call	_ZN9__gnu_cxxL12__atomic_addEPVii
	jmp	.L20
.L18:
	movl	24(%rbp), %eax
	movl	%eax, %edx
	movq	16(%rbp), %rcx
	call	_ZN9__gnu_cxxL19__atomic_add_singleEPii
.L20:
	nop
	addq	$32, %rsp
	popq	%rbp
	ret
	.seh_endproc
.lcomm _ZStL8__ioinit,1,1
	.section	.text$_ZSt5ldexpfi,"x"
	.linkonce discard
	.globl	_ZSt5ldexpfi
	.def	_ZSt5ldexpfi;	.scl	2;	.type	32;	.endef
	.seh_proc	_ZSt5ldexpfi
_ZSt5ldexpfi:
	pushq	%rbp
	.seh_pushreg	%rbp
	movq	%rsp, %rbp
	.seh_setframe	%rbp, 0
	subq	$32, %rsp
	.seh_stackalloc	32
	.seh_endprologue
	movss	%xmm0, 16(%rbp)
	movl	%edx, 24(%rbp)
	movl	24(%rbp), %eax
	movl	%eax, %edx
	movss	16(%rbp), %xmm0
	call	ldexpf
	addq	$32, %rsp
	popq	%rbp
	ret
	.seh_endproc
	.section	.text$_ZSt3powff,"x"
	.linkonce discard
	.globl	_ZSt3powff
	.def	_ZSt3powff;	.scl	2;	.type	32;	.endef
	.seh_proc	_ZSt3powff
_ZSt3powff:
	pushq	%rbp
	.seh_pushreg	%rbp
	movq	%rsp, %rbp
	.seh_setframe	%rbp, 0
	subq	$32, %rsp
	.seh_stackalloc	32
	.seh_endprologue
	movss	%xmm0, 16(%rbp)
	movss	%xmm1, 24(%rbp)
	movss	24(%rbp), %xmm0
	movaps	%xmm0, %xmm1
	movss	16(%rbp), %xmm0
	call	powf
	addq	$32, %rsp
	popq	%rbp
	ret
	.seh_endproc
	.text
	.def	_ZL15stbi__start_memP13stbi__contextPKhi;	.scl	3;	.type	32;	.endef
	.seh_proc	_ZL15stbi__start_memP13stbi__contextPKhi
_ZL15stbi__start_memP13stbi__contextPKhi:
	pushq	%rbp
	.seh_pushreg	%rbp
	movq	%rsp, %rbp
	.seh_setframe	%rbp, 0
	.seh_endprologue
	movq	%rcx, 16(%rbp)
	movq	%rdx, 24(%rbp)
	movl	%r8d, 32(%rbp)
	movq	16(%rbp), %rax
	movq	$0, 16(%rax)
	movq	16(%rbp), %rax
	movl	$0, 48(%rax)
	movq	16(%rbp), %rax
	movq	24(%rbp), %rdx
	movq	%rdx, 200(%rax)
	movq	16(%rbp), %rax
	movq	200(%rax), %rdx
	movq	16(%rbp), %rax
	movq	%rdx, 184(%rax)
	movl	32(%rbp), %eax
	cltq
	movq	24(%rbp), %rdx
	addq	%rax, %rdx
	movq	16(%rbp), %rax
	movq	%rdx, 192(%rax)
	nop
	popq	%rbp
	ret
	.seh_endproc
	.def	_ZL21stbi__start_callbacksP13stbi__contextP17stbi_io_callbacksPv;	.scl	3;	.type	32;	.endef
	.seh_proc	_ZL21stbi__start_callbacksP13stbi__contextP17stbi_io_callbacksPv
_ZL21stbi__start_callbacksP13stbi__contextP17stbi_io_callbacksPv:
	pushq	%rbp
	.seh_pushreg	%rbp
	movq	%rsp, %rbp
	.seh_setframe	%rbp, 0
	subq	$32, %rsp
	.seh_stackalloc	32
	.seh_endprologue
	movq	%rcx, 16(%rbp)
	movq	%rdx, 24(%rbp)
	movq	%r8, 32(%rbp)
	movq	16(%rbp), %rax
	movq	24(%rbp), %rdx
	movq	(%rdx), %rcx
	movq	%rcx, 16(%rax)
	movq	8(%rdx), %rcx
	movq	%rcx, 24(%rax)
	movq	16(%rdx), %rdx
	movq	%rdx, 32(%rax)
	movq	16(%rbp), %rax
	movq	32(%rbp), %rdx
	movq	%rdx, 40(%rax)
	movq	16(%rbp), %rax
	movl	$128, 52(%rax)
	movq	16(%rbp), %rax
	movl	$1, 48(%rax)
	movq	16(%rbp), %rax
	leaq	56(%rax), %rdx
	movq	16(%rbp), %rax
	movq	%rdx, 200(%rax)
	movq	16(%rbp), %rcx
	call	_ZL19stbi__refill_bufferP13stbi__context
	nop
	addq	$32, %rsp
	popq	%rbp
	ret
	.seh_endproc
	.def	_ZL16stbi__stdio_readPvPci;	.scl	3;	.type	32;	.endef
	.seh_proc	_ZL16stbi__stdio_readPvPci
_ZL16stbi__stdio_readPvPci:
	pushq	%rbp
	.seh_pushreg	%rbp
	movq	%rsp, %rbp
	.seh_setframe	%rbp, 0
	subq	$32, %rsp
	.seh_stackalloc	32
	.seh_endprologue
	movq	%rcx, 16(%rbp)
	movq	%rdx, 24(%rbp)
	movl	%r8d, 32(%rbp)
	movl	32(%rbp), %eax
	movslq	%eax, %rdx
	movq	24(%rbp), %rax
	movq	16(%rbp), %r9
	movq	%rdx, %r8
	movl	$1, %edx
	movq	%rax, %rcx
	call	fread
	addq	$32, %rsp
	popq	%rbp
	ret
	.seh_endproc
	.def	_ZL16stbi__stdio_skipPvi;	.scl	3;	.type	32;	.endef
	.seh_proc	_ZL16stbi__stdio_skipPvi
_ZL16stbi__stdio_skipPvi:
	pushq	%rbp
	.seh_pushreg	%rbp
	movq	%rsp, %rbp
	.seh_setframe	%rbp, 0
	subq	$32, %rsp
	.seh_stackalloc	32
	.seh_endprologue
	movq	%rcx, 16(%rbp)
	movl	%edx, 24(%rbp)
	movl	24(%rbp), %eax
	movl	$1, %r8d
	movl	%eax, %edx
	movq	16(%rbp), %rcx
	call	fseek
	nop
	addq	$32, %rsp
	popq	%rbp
	ret
	.seh_endproc
	.def	_ZL15stbi__stdio_eofPv;	.scl	3;	.type	32;	.endef
	.seh_proc	_ZL15stbi__stdio_eofPv
_ZL15stbi__stdio_eofPv:
	pushq	%rbp
	.seh_pushreg	%rbp
	movq	%rsp, %rbp
	.seh_setframe	%rbp, 0
	subq	$32, %rsp
	.seh_stackalloc	32
	.seh_endprologue
	movq	%rcx, 16(%rbp)
	movq	16(%rbp), %rcx
	call	feof
	addq	$32, %rsp
	popq	%rbp
	ret
	.seh_endproc
	.data
	.align 16
_ZL21stbi__stdio_callbacks:
	.quad	_ZL16stbi__stdio_readPvPci
	.quad	_ZL16stbi__stdio_skipPvi
	.quad	_ZL15stbi__stdio_eofPv
	.text
	.def	_ZL16stbi__start_fileP13stbi__contextP6_iobuf;	.scl	3;	.type	32;	.endef
	.seh_proc	_ZL16stbi__start_fileP13stbi__contextP6_iobuf
_ZL16stbi__start_fileP13stbi__contextP6_iobuf:
	pushq	%rbp
	.seh_pushreg	%rbp
	movq	%rsp, %rbp
	.seh_setframe	%rbp, 0
	subq	$32, %rsp
	.seh_stackalloc	32
	.seh_endprologue
	movq	%rcx, 16(%rbp)
	movq	%rdx, 24(%rbp)
	movq	24(%rbp), %rax
	movq	%rax, %r8
	leaq	_ZL21stbi__stdio_callbacks(%rip), %rdx
	movq	16(%rbp), %rcx
	call	_ZL21stbi__start_callbacksP13stbi__contextP17stbi_io_callbacksPv
	nop
	addq	$32, %rsp
	popq	%rbp
	ret
	.seh_endproc
	.def	_ZL12stbi__rewindP13stbi__context;	.scl	3;	.type	32;	.endef
	.seh_proc	_ZL12stbi__rewindP13stbi__context
_ZL12stbi__rewindP13stbi__context:
	pushq	%rbp
	.seh_pushreg	%rbp
	movq	%rsp, %rbp
	.seh_setframe	%rbp, 0
	.seh_endprologue
	movq	%rcx, 16(%rbp)
	movq	16(%rbp), %rax
	movq	200(%rax), %rdx
	movq	16(%rbp), %rax
	movq	%rdx, 184(%rax)
	nop
	popq	%rbp
	ret
	.seh_endproc
.lcomm _ZL22stbi__g_failure_reason,8,8
	.globl	stbi_failure_reason
	.def	stbi_failure_reason;	.scl	2;	.type	32;	.endef
	.seh_proc	stbi_failure_reason
stbi_failure_reason:
	.seh_endprologue
	movq	_ZL22stbi__g_failure_reason(%rip), %rax
	ret
	.seh_endproc
	.def	_ZL9stbi__errPKc;	.scl	3;	.type	32;	.endef
	.seh_proc	_ZL9stbi__errPKc
_ZL9stbi__errPKc:
	pushq	%rbp
	.seh_pushreg	%rbp
	movq	%rsp, %rbp
	.seh_setframe	%rbp, 0
	.seh_endprologue
	movq	%rcx, 16(%rbp)
	movq	16(%rbp), %rax
	movq	%rax, _ZL22stbi__g_failure_reason(%rip)
	movl	$0, %eax
	popq	%rbp
	ret
	.seh_endproc
	.def	_ZL12stbi__mallocy;	.scl	3;	.type	32;	.endef
	.seh_proc	_ZL12stbi__mallocy
_ZL12stbi__mallocy:
	pushq	%rbp
	.seh_pushreg	%rbp
	movq	%rsp, %rbp
	.seh_setframe	%rbp, 0
	subq	$32, %rsp
	.seh_stackalloc	32
	.seh_endprologue
	movq	%rcx, 16(%rbp)
	movq	16(%rbp), %rcx
	call	malloc
	addq	$32, %rsp
	popq	%rbp
	ret
	.seh_endproc
	.globl	stbi_image_free
	.def	stbi_image_free;	.scl	2;	.type	32;	.endef
	.seh_proc	stbi_image_free
stbi_image_free:
	pushq	%rbp
	.seh_pushreg	%rbp
	movq	%rsp, %rbp
	.seh_setframe	%rbp, 0
	subq	$32, %rsp
	.seh_stackalloc	32
	.seh_endprologue
	movq	%rcx, 16(%rbp)
	movq	16(%rbp), %rcx
	call	free
	nop
	addq	$32, %rsp
	popq	%rbp
	ret
	.seh_endproc
.lcomm _ZL29stbi__vertically_flip_on_load,4,4
	.globl	stbi_set_flip_vertically_on_load
	.def	stbi_set_flip_vertically_on_load;	.scl	2;	.type	32;	.endef
	.seh_proc	stbi_set_flip_vertically_on_load
stbi_set_flip_vertically_on_load:
	pushq	%rbp
	.seh_pushreg	%rbp
	movq	%rsp, %rbp
	.seh_setframe	%rbp, 0
	.seh_endprologue
	movl	%ecx, 16(%rbp)
	movl	16(%rbp), %eax
	movl	%eax, _ZL29stbi__vertically_flip_on_load(%rip)
	nop
	popq	%rbp
	ret
	.seh_endproc
	.section .rdata,"dr"
.LC0:
	.ascii "unknown image type\0"
	.text
	.def	_ZL15stbi__load_mainP13stbi__contextPiS1_S1_i;	.scl	3;	.type	32;	.endef
	.seh_proc	_ZL15stbi__load_mainP13stbi__contextPiS1_S1_i
_ZL15stbi__load_mainP13stbi__contextPiS1_S1_i:
	pushq	%rbp
	.seh_pushreg	%rbp
	movq	%rsp, %rbp
	.seh_setframe	%rbp, 0
	subq	$64, %rsp
	.seh_stackalloc	64
	.seh_endprologue
	movq	%rcx, 16(%rbp)
	movq	%rdx, 24(%rbp)
	movq	%r8, 32(%rbp)
	movq	%r9, 40(%rbp)
	movq	16(%rbp), %rcx
	call	_ZL15stbi__jpeg_testP13stbi__context
	testl	%eax, %eax
	setne	%al
	testb	%al, %al
	je	.L43
	movq	40(%rbp), %r8
	movq	32(%rbp), %rcx
	movq	24(%rbp), %rax
	movl	48(%rbp), %edx
	movl	%edx, 32(%rsp)
	movq	%r8, %r9
	movq	%rcx, %r8
	movq	%rax, %rdx
	movq	16(%rbp), %rcx
	call	_ZL15stbi__jpeg_loadP13stbi__contextPiS1_S1_i
	jmp	.L44
.L43:
	movq	16(%rbp), %rcx
	call	_ZL14stbi__png_testP13stbi__context
	testl	%eax, %eax
	setne	%al
	testb	%al, %al
	je	.L45
	movq	40(%rbp), %r8
	movq	32(%rbp), %rcx
	movq	24(%rbp), %rax
	movl	48(%rbp), %edx
	movl	%edx, 32(%rsp)
	movq	%r8, %r9
	movq	%rcx, %r8
	movq	%rax, %rdx
	movq	16(%rbp), %rcx
	call	_ZL14stbi__png_loadP13stbi__contextPiS1_S1_i
	jmp	.L44
.L45:
	movq	16(%rbp), %rcx
	call	_ZL14stbi__bmp_testP13stbi__context
	testl	%eax, %eax
	setne	%al
	testb	%al, %al
	je	.L46
	movq	40(%rbp), %r8
	movq	32(%rbp), %rcx
	movq	24(%rbp), %rax
	movl	48(%rbp), %edx
	movl	%edx, 32(%rsp)
	movq	%r8, %r9
	movq	%rcx, %r8
	movq	%rax, %rdx
	movq	16(%rbp), %rcx
	call	_ZL14stbi__bmp_loadP13stbi__contextPiS1_S1_i
	jmp	.L44
.L46:
	movq	16(%rbp), %rcx
	call	_ZL14stbi__gif_testP13stbi__context
	testl	%eax, %eax
	setne	%al
	testb	%al, %al
	je	.L47
	movq	40(%rbp), %r8
	movq	32(%rbp), %rcx
	movq	24(%rbp), %rax
	movl	48(%rbp), %edx
	movl	%edx, 32(%rsp)
	movq	%r8, %r9
	movq	%rcx, %r8
	movq	%rax, %rdx
	movq	16(%rbp), %rcx
	call	_ZL14stbi__gif_loadP13stbi__contextPiS1_S1_i
	jmp	.L44
.L47:
	movq	16(%rbp), %rcx
	call	_ZL14stbi__psd_testP13stbi__context
	testl	%eax, %eax
	setne	%al
	testb	%al, %al
	je	.L48
	movq	40(%rbp), %r8
	movq	32(%rbp), %rcx
	movq	24(%rbp), %rax
	movl	48(%rbp), %edx
	movl	%edx, 32(%rsp)
	movq	%r8, %r9
	movq	%rcx, %r8
	movq	%rax, %rdx
	movq	16(%rbp), %rcx
	call	_ZL14stbi__psd_loadP13stbi__contextPiS1_S1_i
	jmp	.L44
.L48:
	movq	16(%rbp), %rcx
	call	_ZL14stbi__pic_testP13stbi__context
	testl	%eax, %eax
	setne	%al
	testb	%al, %al
	je	.L49
	movq	40(%rbp), %r8
	movq	32(%rbp), %rcx
	movq	24(%rbp), %rax
	movl	48(%rbp), %edx
	movl	%edx, 32(%rsp)
	movq	%r8, %r9
	movq	%rcx, %r8
	movq	%rax, %rdx
	movq	16(%rbp), %rcx
	call	_ZL14stbi__pic_loadP13stbi__contextPiS1_S1_i
	jmp	.L44
.L49:
	movq	16(%rbp), %rcx
	call	_ZL14stbi__pnm_testP13stbi__context
	testl	%eax, %eax
	setne	%al
	testb	%al, %al
	je	.L50
	movq	40(%rbp), %r8
	movq	32(%rbp), %rcx
	movq	24(%rbp), %rax
	movl	48(%rbp), %edx
	movl	%edx, 32(%rsp)
	movq	%r8, %r9
	movq	%rcx, %r8
	movq	%rax, %rdx
	movq	16(%rbp), %rcx
	call	_ZL14stbi__pnm_loadP13stbi__contextPiS1_S1_i
	jmp	.L44
.L50:
	movq	16(%rbp), %rcx
	call	_ZL14stbi__hdr_testP13stbi__context
	testl	%eax, %eax
	setne	%al
	testb	%al, %al
	je	.L51
	movq	40(%rbp), %r8
	movq	32(%rbp), %rcx
	movq	24(%rbp), %rax
	movl	48(%rbp), %edx
	movl	%edx, 32(%rsp)
	movq	%r8, %r9
	movq	%rcx, %r8
	movq	%rax, %rdx
	movq	16(%rbp), %rcx
	call	_ZL14stbi__hdr_loadP13stbi__contextPiS1_S1_i
	movq	%rax, -8(%rbp)
	cmpl	$0, 48(%rbp)
	jne	.L52
	movq	40(%rbp), %rax
	movl	(%rax), %eax
	jmp	.L53
.L52:
	movl	48(%rbp), %eax
.L53:
	movq	32(%rbp), %rdx
	movl	(%rdx), %r8d
	movq	24(%rbp), %rdx
	movl	(%rdx), %edx
	movq	-8(%rbp), %rcx
	movl	%eax, %r9d
	call	_ZL16stbi__hdr_to_ldrPfiii
	jmp	.L44
.L51:
	movq	16(%rbp), %rcx
	call	_ZL14stbi__tga_testP13stbi__context
	testl	%eax, %eax
	setne	%al
	testb	%al, %al
	je	.L54
	movq	40(%rbp), %r8
	movq	32(%rbp), %rcx
	movq	24(%rbp), %rax
	movl	48(%rbp), %edx
	movl	%edx, 32(%rsp)
	movq	%r8, %r9
	movq	%rcx, %r8
	movq	%rax, %rdx
	movq	16(%rbp), %rcx
	call	_ZL14stbi__tga_loadP13stbi__contextPiS1_S1_i
	jmp	.L44
.L54:
	leaq	.LC0(%rip), %rcx
	call	_ZL9stbi__errPKc
	movl	$0, %eax
.L44:
	addq	$64, %rsp
	popq	%rbp
	ret
	.seh_endproc
	.def	_ZL15stbi__load_flipP13stbi__contextPiS1_S1_i;	.scl	3;	.type	32;	.endef
	.seh_proc	_ZL15stbi__load_flipP13stbi__contextPiS1_S1_i
_ZL15stbi__load_flipP13stbi__contextPiS1_S1_i:
	pushq	%rbp
	.seh_pushreg	%rbp
	movq	%rsp, %rbp
	.seh_setframe	%rbp, 0
	subq	$96, %rsp
	.seh_stackalloc	96
	.seh_endprologue
	movq	%rcx, 16(%rbp)
	movq	%rdx, 24(%rbp)
	movq	%r8, 32(%rbp)
	movq	%r9, 40(%rbp)
	movq	40(%rbp), %r8
	movq	32(%rbp), %rcx
	movq	24(%rbp), %rax
	movl	48(%rbp), %edx
	movl	%edx, 32(%rsp)
	movq	%r8, %r9
	movq	%rcx, %r8
	movq	%rax, %rdx
	movq	16(%rbp), %rcx
	call	_ZL15stbi__load_mainP13stbi__contextPiS1_S1_i
	movq	%rax, -24(%rbp)
	movl	_ZL29stbi__vertically_flip_on_load(%rip), %eax
	testl	%eax, %eax
	je	.L56
	cmpq	$0, -24(%rbp)
	je	.L56
	movq	24(%rbp), %rax
	movl	(%rax), %eax
	movl	%eax, -28(%rbp)
	movq	32(%rbp), %rax
	movl	(%rax), %eax
	movl	%eax, -32(%rbp)
	cmpl	$0, 48(%rbp)
	jne	.L57
	movq	40(%rbp), %rax
	movl	(%rax), %eax
	jmp	.L58
.L57:
	movl	48(%rbp), %eax
.L58:
	movl	%eax, -36(%rbp)
	movl	$0, -4(%rbp)
.L64:
	movl	-32(%rbp), %eax
	sarl	%eax
	cmpl	%eax, -4(%rbp)
	jge	.L56
	movl	$0, -8(%rbp)
.L63:
	movl	-8(%rbp), %eax
	cmpl	-28(%rbp), %eax
	jge	.L60
	movl	$0, -12(%rbp)
.L62:
	movl	-12(%rbp), %eax
	cmpl	-36(%rbp), %eax
	jge	.L61
	movl	-4(%rbp), %eax
	imull	-28(%rbp), %eax
	movl	-8(%rbp), %edx
	addl	%edx, %eax
	imull	-36(%rbp), %eax
	movl	-12(%rbp), %edx
	addl	%edx, %eax
	cltq
	movq	-24(%rbp), %rdx
	addq	%rdx, %rax
	movzbl	(%rax), %eax
	movb	%al, -37(%rbp)
	movl	-32(%rbp), %eax
	subl	-4(%rbp), %eax
	subl	$1, %eax
	imull	-28(%rbp), %eax
	movl	-8(%rbp), %edx
	addl	%edx, %eax
	imull	-36(%rbp), %eax
	movl	-12(%rbp), %edx
	addl	%edx, %eax
	cltq
	movq	-24(%rbp), %rdx
	addq	%rdx, %rax
	movl	-4(%rbp), %edx
	imull	-28(%rbp), %edx
	movl	-8(%rbp), %ecx
	addl	%ecx, %edx
	imull	-36(%rbp), %edx
	movl	-12(%rbp), %ecx
	addl	%ecx, %edx
	movslq	%edx, %rdx
	movq	-24(%rbp), %rcx
	addq	%rcx, %rdx
	movzbl	(%rax), %eax
	movb	%al, (%rdx)
	movl	-32(%rbp), %eax
	subl	-4(%rbp), %eax
	subl	$1, %eax
	imull	-28(%rbp), %eax
	movl	-8(%rbp), %edx
	addl	%edx, %eax
	imull	-36(%rbp), %eax
	movl	-12(%rbp), %edx
	addl	%edx, %eax
	cltq
	movq	-24(%rbp), %rdx
	addq	%rax, %rdx
	movzbl	-37(%rbp), %eax
	movb	%al, (%rdx)
	addl	$1, -12(%rbp)
	jmp	.L62
.L61:
	addl	$1, -8(%rbp)
	jmp	.L63
.L60:
	addl	$1, -4(%rbp)
	jmp	.L64
.L56:
	movq	-24(%rbp), %rax
	addq	$96, %rsp
	popq	%rbp
	ret
	.seh_endproc
	.def	_ZL23stbi__float_postprocessPfPiS0_S0_i;	.scl	3;	.type	32;	.endef
	.seh_proc	_ZL23stbi__float_postprocessPfPiS0_S0_i
_ZL23stbi__float_postprocessPfPiS0_S0_i:
	pushq	%rbp
	.seh_pushreg	%rbp
	movq	%rsp, %rbp
	.seh_setframe	%rbp, 0
	subq	$32, %rsp
	.seh_stackalloc	32
	.seh_endprologue
	movq	%rcx, 16(%rbp)
	movq	%rdx, 24(%rbp)
	movq	%r8, 32(%rbp)
	movq	%r9, 40(%rbp)
	movl	_ZL29stbi__vertically_flip_on_load(%rip), %eax
	testl	%eax, %eax
	je	.L76
	cmpq	$0, 16(%rbp)
	je	.L76
	movq	24(%rbp), %rax
	movl	(%rax), %eax
	movl	%eax, -16(%rbp)
	movq	32(%rbp), %rax
	movl	(%rax), %eax
	movl	%eax, -20(%rbp)
	cmpl	$0, 48(%rbp)
	jne	.L68
	movq	40(%rbp), %rax
	movl	(%rax), %eax
	jmp	.L69
.L68:
	movl	48(%rbp), %eax
.L69:
	movl	%eax, -24(%rbp)
	movl	$0, -4(%rbp)
.L75:
	movl	-20(%rbp), %eax
	sarl	%eax
	cmpl	%eax, -4(%rbp)
	jge	.L76
	movl	$0, -8(%rbp)
.L74:
	movl	-8(%rbp), %eax
	cmpl	-16(%rbp), %eax
	jge	.L71
	movl	$0, -12(%rbp)
.L73:
	movl	-12(%rbp), %eax
	cmpl	-24(%rbp), %eax
	jge	.L72
	movl	-4(%rbp), %eax
	imull	-16(%rbp), %eax
	movl	-8(%rbp), %edx
	addl	%edx, %eax
	imull	-24(%rbp), %eax
	movl	-12(%rbp), %edx
	addl	%edx, %eax
	cltq
	leaq	0(,%rax,4), %rdx
	movq	16(%rbp), %rax
	addq	%rdx, %rax
	movss	(%rax), %xmm0
	movss	%xmm0, -28(%rbp)
	movl	-20(%rbp), %eax
	subl	-4(%rbp), %eax
	subl	$1, %eax
	imull	-16(%rbp), %eax
	movl	-8(%rbp), %edx
	addl	%edx, %eax
	imull	-24(%rbp), %eax
	movl	-12(%rbp), %edx
	addl	%edx, %eax
	cltq
	leaq	0(,%rax,4), %rdx
	movq	16(%rbp), %rax
	addq	%rax, %rdx
	movl	-4(%rbp), %eax
	imull	-16(%rbp), %eax
	movl	-8(%rbp), %ecx
	addl	%ecx, %eax
	imull	-24(%rbp), %eax
	movl	-12(%rbp), %ecx
	addl	%ecx, %eax
	cltq
	leaq	0(,%rax,4), %rcx
	movq	16(%rbp), %rax
	addq	%rcx, %rax
	movss	(%rdx), %xmm0
	movss	%xmm0, (%rax)
	movl	-20(%rbp), %eax
	subl	-4(%rbp), %eax
	subl	$1, %eax
	imull	-16(%rbp), %eax
	movl	-8(%rbp), %edx
	addl	%edx, %eax
	imull	-24(%rbp), %eax
	movl	-12(%rbp), %edx
	addl	%edx, %eax
	cltq
	leaq	0(,%rax,4), %rdx
	movq	16(%rbp), %rax
	addq	%rdx, %rax
	movss	-28(%rbp), %xmm0
	movss	%xmm0, (%rax)
	addl	$1, -12(%rbp)
	jmp	.L73
.L72:
	addl	$1, -8(%rbp)
	jmp	.L74
.L71:
	addl	$1, -4(%rbp)
	jmp	.L75
.L76:
	nop
	addq	$32, %rsp
	popq	%rbp
	ret
	.seh_endproc
	.def	_ZL11stbi__fopenPKcS0_;	.scl	3;	.type	32;	.endef
	.seh_proc	_ZL11stbi__fopenPKcS0_
_ZL11stbi__fopenPKcS0_:
	pushq	%rbp
	.seh_pushreg	%rbp
	movq	%rsp, %rbp
	.seh_setframe	%rbp, 0
	subq	$48, %rsp
	.seh_stackalloc	48
	.seh_endprologue
	movq	%rcx, 16(%rbp)
	movq	%rdx, 24(%rbp)
	movq	24(%rbp), %rax
	movq	%rax, %rdx
	movq	16(%rbp), %rcx
	call	fopen
	movq	%rax, -8(%rbp)
	movq	-8(%rbp), %rax
	addq	$48, %rsp
	popq	%rbp
	ret
	.seh_endproc
	.section .rdata,"dr"
.LC1:
	.ascii "rb\0"
.LC2:
	.ascii "can't fopen\0"
	.text
	.globl	stbi_load
	.def	stbi_load;	.scl	2;	.type	32;	.endef
	.seh_proc	stbi_load
stbi_load:
	pushq	%rbp
	.seh_pushreg	%rbp
	movq	%rsp, %rbp
	.seh_setframe	%rbp, 0
	subq	$64, %rsp
	.seh_stackalloc	64
	.seh_endprologue
	movq	%rcx, 16(%rbp)
	movq	%rdx, 24(%rbp)
	movq	%r8, 32(%rbp)
	movq	%r9, 40(%rbp)
	leaq	.LC1(%rip), %rdx
	movq	16(%rbp), %rcx
	call	_ZL11stbi__fopenPKcS0_
	movq	%rax, -8(%rbp)
	cmpq	$0, -8(%rbp)
	jne	.L80
	leaq	.LC2(%rip), %rcx
	call	_ZL9stbi__errPKc
	movl	$0, %eax
	jmp	.L81
.L80:
	movq	40(%rbp), %r9
	movq	32(%rbp), %r8
	movq	24(%rbp), %rdx
	movq	-8(%rbp), %rax
	movl	48(%rbp), %ecx
	movl	%ecx, 32(%rsp)
	movq	%rax, %rcx
	call	stbi_load_from_file
	movq	%rax, -16(%rbp)
	movq	-8(%rbp), %rax
	movq	%rax, %rcx
	call	fclose
	movq	-16(%rbp), %rax
.L81:
	addq	$64, %rsp
	popq	%rbp
	ret
	.seh_endproc
	.globl	stbi_load_from_file
	.def	stbi_load_from_file;	.scl	2;	.type	32;	.endef
	.seh_proc	stbi_load_from_file
stbi_load_from_file:
	pushq	%rbp
	.seh_pushreg	%rbp
	subq	$272, %rsp
	.seh_stackalloc	272
	leaq	128(%rsp), %rbp
	.seh_setframe	%rbp, 128
	.seh_endprologue
	movq	%rcx, 160(%rbp)
	movq	%rdx, 168(%rbp)
	movq	%r8, 176(%rbp)
	movq	%r9, 184(%rbp)
	leaq	-80(%rbp), %rax
	movq	160(%rbp), %rdx
	movq	%rax, %rcx
	call	_ZL16stbi__start_fileP13stbi__contextP6_iobuf
	movq	184(%rbp), %r9
	movq	176(%rbp), %r8
	movq	168(%rbp), %rdx
	leaq	-80(%rbp), %rax
	movl	192(%rbp), %ecx
	movl	%ecx, 32(%rsp)
	movq	%rax, %rcx
	call	_ZL15stbi__load_flipP13stbi__contextPiS1_S1_i
	movq	%rax, 136(%rbp)
	cmpq	$0, 136(%rbp)
	je	.L83
	movq	112(%rbp), %rdx
	movq	104(%rbp), %rax
	subq	%rax, %rdx
	movq	%rdx, %rax
	negl	%eax
	movl	$1, %r8d
	movl	%eax, %edx
	movq	160(%rbp), %rcx
	call	fseek
.L83:
	movq	136(%rbp), %rax
	addq	$272, %rsp
	popq	%rbp
	ret
	.seh_endproc
	.globl	stbi_load_from_memory
	.def	stbi_load_from_memory;	.scl	2;	.type	32;	.endef
	.seh_proc	stbi_load_from_memory
stbi_load_from_memory:
	pushq	%rbp
	.seh_pushreg	%rbp
	subq	$256, %rsp
	.seh_stackalloc	256
	leaq	128(%rsp), %rbp
	.seh_setframe	%rbp, 128
	.seh_endprologue
	movq	%rcx, 144(%rbp)
	movl	%edx, 152(%rbp)
	movq	%r8, 160(%rbp)
	movq	%r9, 168(%rbp)
	movl	152(%rbp), %edx
	leaq	-80(%rbp), %rax
	movl	%edx, %r8d
	movq	144(%rbp), %rdx
	movq	%rax, %rcx
	call	_ZL15stbi__start_memP13stbi__contextPKhi
	movq	176(%rbp), %r9
	movq	168(%rbp), %r8
	movq	160(%rbp), %rdx
	leaq	-80(%rbp), %rax
	movl	184(%rbp), %ecx
	movl	%ecx, 32(%rsp)
	movq	%rax, %rcx
	call	_ZL15stbi__load_flipP13stbi__contextPiS1_S1_i
	nop
	addq	$256, %rsp
	popq	%rbp
	ret
	.seh_endproc
	.globl	stbi_load_from_callbacks
	.def	stbi_load_from_callbacks;	.scl	2;	.type	32;	.endef
	.seh_proc	stbi_load_from_callbacks
stbi_load_from_callbacks:
	pushq	%rbp
	.seh_pushreg	%rbp
	subq	$256, %rsp
	.seh_stackalloc	256
	leaq	128(%rsp), %rbp
	.seh_setframe	%rbp, 128
	.seh_endprologue
	movq	%rcx, 144(%rbp)
	movq	%rdx, 152(%rbp)
	movq	%r8, 160(%rbp)
	movq	%r9, 168(%rbp)
	movq	152(%rbp), %rdx
	leaq	-80(%rbp), %rax
	movq	%rdx, %r8
	movq	144(%rbp), %rdx
	movq	%rax, %rcx
	call	_ZL21stbi__start_callbacksP13stbi__contextP17stbi_io_callbacksPv
	movq	176(%rbp), %r9
	movq	168(%rbp), %r8
	movq	160(%rbp), %rdx
	leaq	-80(%rbp), %rax
	movl	184(%rbp), %ecx
	movl	%ecx, 32(%rsp)
	movq	%rax, %rcx
	call	_ZL15stbi__load_flipP13stbi__contextPiS1_S1_i
	nop
	addq	$256, %rsp
	popq	%rbp
	ret
	.seh_endproc
	.def	_ZL16stbi__loadf_mainP13stbi__contextPiS1_S1_i;	.scl	3;	.type	32;	.endef
	.seh_proc	_ZL16stbi__loadf_mainP13stbi__contextPiS1_S1_i
_ZL16stbi__loadf_mainP13stbi__contextPiS1_S1_i:
	pushq	%rbp
	.seh_pushreg	%rbp
	movq	%rsp, %rbp
	.seh_setframe	%rbp, 0
	subq	$64, %rsp
	.seh_stackalloc	64
	.seh_endprologue
	movq	%rcx, 16(%rbp)
	movq	%rdx, 24(%rbp)
	movq	%r8, 32(%rbp)
	movq	%r9, 40(%rbp)
	movq	16(%rbp), %rcx
	call	_ZL14stbi__hdr_testP13stbi__context
	testl	%eax, %eax
	setne	%al
	testb	%al, %al
	je	.L90
	movq	40(%rbp), %r8
	movq	32(%rbp), %rcx
	movq	24(%rbp), %rax
	movl	48(%rbp), %edx
	movl	%edx, 32(%rsp)
	movq	%r8, %r9
	movq	%rcx, %r8
	movq	%rax, %rdx
	movq	16(%rbp), %rcx
	call	_ZL14stbi__hdr_loadP13stbi__contextPiS1_S1_i
	movq	%rax, -8(%rbp)
	cmpq	$0, -8(%rbp)
	je	.L91
	movq	40(%rbp), %r9
	movq	32(%rbp), %r8
	movq	24(%rbp), %rdx
	movq	-8(%rbp), %rax
	movl	48(%rbp), %ecx
	movl	%ecx, 32(%rsp)
	movq	%rax, %rcx
	call	_ZL23stbi__float_postprocessPfPiS0_S0_i
.L91:
	movq	-8(%rbp), %rax
	jmp	.L92
.L90:
	movq	40(%rbp), %r8
	movq	32(%rbp), %rcx
	movq	24(%rbp), %rax
	movl	48(%rbp), %edx
	movl	%edx, 32(%rsp)
	movq	%r8, %r9
	movq	%rcx, %r8
	movq	%rax, %rdx
	movq	16(%rbp), %rcx
	call	_ZL15stbi__load_flipP13stbi__contextPiS1_S1_i
	movq	%rax, -16(%rbp)
	cmpq	$0, -16(%rbp)
	je	.L93
	cmpl	$0, 48(%rbp)
	jne	.L94
	movq	40(%rbp), %rax
	movl	(%rax), %eax
	jmp	.L95
.L94:
	movl	48(%rbp), %eax
.L95:
	movq	32(%rbp), %rdx
	movl	(%rdx), %r8d
	movq	24(%rbp), %rdx
	movl	(%rdx), %edx
	movq	-16(%rbp), %rcx
	movl	%eax, %r9d
	call	_ZL16stbi__ldr_to_hdrPhiii
	jmp	.L92
.L93:
	leaq	.LC0(%rip), %rcx
	call	_ZL9stbi__errPKc
	movl	$0, %eax
.L92:
	addq	$64, %rsp
	popq	%rbp
	ret
	.seh_endproc
	.globl	stbi_loadf_from_memory
	.def	stbi_loadf_from_memory;	.scl	2;	.type	32;	.endef
	.seh_proc	stbi_loadf_from_memory
stbi_loadf_from_memory:
	pushq	%rbp
	.seh_pushreg	%rbp
	subq	$256, %rsp
	.seh_stackalloc	256
	leaq	128(%rsp), %rbp
	.seh_setframe	%rbp, 128
	.seh_endprologue
	movq	%rcx, 144(%rbp)
	movl	%edx, 152(%rbp)
	movq	%r8, 160(%rbp)
	movq	%r9, 168(%rbp)
	movl	152(%rbp), %edx
	leaq	-80(%rbp), %rax
	movl	%edx, %r8d
	movq	144(%rbp), %rdx
	movq	%rax, %rcx
	call	_ZL15stbi__start_memP13stbi__contextPKhi
	movq	176(%rbp), %r9
	movq	168(%rbp), %r8
	movq	160(%rbp), %rdx
	leaq	-80(%rbp), %rax
	movl	184(%rbp), %ecx
	movl	%ecx, 32(%rsp)
	movq	%rax, %rcx
	call	_ZL16stbi__loadf_mainP13stbi__contextPiS1_S1_i
	nop
	addq	$256, %rsp
	popq	%rbp
	ret
	.seh_endproc
	.globl	stbi_loadf_from_callbacks
	.def	stbi_loadf_from_callbacks;	.scl	2;	.type	32;	.endef
	.seh_proc	stbi_loadf_from_callbacks
stbi_loadf_from_callbacks:
	pushq	%rbp
	.seh_pushreg	%rbp
	subq	$256, %rsp
	.seh_stackalloc	256
	leaq	128(%rsp), %rbp
	.seh_setframe	%rbp, 128
	.seh_endprologue
	movq	%rcx, 144(%rbp)
	movq	%rdx, 152(%rbp)
	movq	%r8, 160(%rbp)
	movq	%r9, 168(%rbp)
	movq	152(%rbp), %rdx
	leaq	-80(%rbp), %rax
	movq	%rdx, %r8
	movq	144(%rbp), %rdx
	movq	%rax, %rcx
	call	_ZL21stbi__start_callbacksP13stbi__contextP17stbi_io_callbacksPv
	movq	176(%rbp), %r9
	movq	168(%rbp), %r8
	movq	160(%rbp), %rdx
	leaq	-80(%rbp), %rax
	movl	184(%rbp), %ecx
	movl	%ecx, 32(%rsp)
	movq	%rax, %rcx
	call	_ZL16stbi__loadf_mainP13stbi__contextPiS1_S1_i
	nop
	addq	$256, %rsp
	popq	%rbp
	ret
	.seh_endproc
	.globl	stbi_loadf
	.def	stbi_loadf;	.scl	2;	.type	32;	.endef
	.seh_proc	stbi_loadf
stbi_loadf:
	pushq	%rbp
	.seh_pushreg	%rbp
	movq	%rsp, %rbp
	.seh_setframe	%rbp, 0
	subq	$64, %rsp
	.seh_stackalloc	64
	.seh_endprologue
	movq	%rcx, 16(%rbp)
	movq	%rdx, 24(%rbp)
	movq	%r8, 32(%rbp)
	movq	%r9, 40(%rbp)
	leaq	.LC1(%rip), %rdx
	movq	16(%rbp), %rcx
	call	_ZL11stbi__fopenPKcS0_
	movq	%rax, -8(%rbp)
	cmpq	$0, -8(%rbp)
	jne	.L101
	leaq	.LC2(%rip), %rcx
	call	_ZL9stbi__errPKc
	movl	$0, %eax
	jmp	.L102
.L101:
	movq	40(%rbp), %r9
	movq	32(%rbp), %r8
	movq	24(%rbp), %rdx
	movq	-8(%rbp), %rax
	movl	48(%rbp), %ecx
	movl	%ecx, 32(%rsp)
	movq	%rax, %rcx
	call	stbi_loadf_from_file
	movq	%rax, -16(%rbp)
	movq	-8(%rbp), %rax
	movq	%rax, %rcx
	call	fclose
	movq	-16(%rbp), %rax
.L102:
	addq	$64, %rsp
	popq	%rbp
	ret
	.seh_endproc
	.globl	stbi_loadf_from_file
	.def	stbi_loadf_from_file;	.scl	2;	.type	32;	.endef
	.seh_proc	stbi_loadf_from_file
stbi_loadf_from_file:
	pushq	%rbp
	.seh_pushreg	%rbp
	subq	$256, %rsp
	.seh_stackalloc	256
	leaq	128(%rsp), %rbp
	.seh_setframe	%rbp, 128
	.seh_endprologue
	movq	%rcx, 144(%rbp)
	movq	%rdx, 152(%rbp)
	movq	%r8, 160(%rbp)
	movq	%r9, 168(%rbp)
	leaq	-80(%rbp), %rax
	movq	144(%rbp), %rdx
	movq	%rax, %rcx
	call	_ZL16stbi__start_fileP13stbi__contextP6_iobuf
	movq	168(%rbp), %r9
	movq	160(%rbp), %r8
	movq	152(%rbp), %rdx
	leaq	-80(%rbp), %rax
	movl	176(%rbp), %ecx
	movl	%ecx, 32(%rsp)
	movq	%rax, %rcx
	call	_ZL16stbi__loadf_mainP13stbi__contextPiS1_S1_i
	nop
	addq	$256, %rsp
	popq	%rbp
	ret
	.seh_endproc
	.globl	stbi_is_hdr_from_memory
	.def	stbi_is_hdr_from_memory;	.scl	2;	.type	32;	.endef
	.seh_proc	stbi_is_hdr_from_memory
stbi_is_hdr_from_memory:
	pushq	%rbp
	.seh_pushreg	%rbp
	movq	%rsp, %rbp
	.seh_setframe	%rbp, 0
	subq	$240, %rsp
	.seh_stackalloc	240
	.seh_endprologue
	movq	%rcx, 16(%rbp)
	movl	%edx, 24(%rbp)
	movl	24(%rbp), %edx
	leaq	-208(%rbp), %rax
	movl	%edx, %r8d
	movq	16(%rbp), %rdx
	movq	%rax, %rcx
	call	_ZL15stbi__start_memP13stbi__contextPKhi
	leaq	-208(%rbp), %rax
	movq	%rax, %rcx
	call	_ZL14stbi__hdr_testP13stbi__context
	nop
	addq	$240, %rsp
	popq	%rbp
	ret
	.seh_endproc
	.globl	stbi_is_hdr
	.def	stbi_is_hdr;	.scl	2;	.type	32;	.endef
	.seh_proc	stbi_is_hdr
stbi_is_hdr:
	pushq	%rbp
	.seh_pushreg	%rbp
	movq	%rsp, %rbp
	.seh_setframe	%rbp, 0
	subq	$48, %rsp
	.seh_stackalloc	48
	.seh_endprologue
	movq	%rcx, 16(%rbp)
	leaq	.LC1(%rip), %rdx
	movq	16(%rbp), %rcx
	call	_ZL11stbi__fopenPKcS0_
	movq	%rax, -16(%rbp)
	movl	$0, -4(%rbp)
	cmpq	$0, -16(%rbp)
	je	.L108
	movq	-16(%rbp), %rax
	movq	%rax, %rcx
	call	stbi_is_hdr_from_file
	movl	%eax, -4(%rbp)
	movq	-16(%rbp), %rax
	movq	%rax, %rcx
	call	fclose
.L108:
	movl	-4(%rbp), %eax
	addq	$48, %rsp
	popq	%rbp
	ret
	.seh_endproc
	.globl	stbi_is_hdr_from_file
	.def	stbi_is_hdr_from_file;	.scl	2;	.type	32;	.endef
	.seh_proc	stbi_is_hdr_from_file
stbi_is_hdr_from_file:
	pushq	%rbp
	.seh_pushreg	%rbp
	movq	%rsp, %rbp
	.seh_setframe	%rbp, 0
	subq	$240, %rsp
	.seh_stackalloc	240
	.seh_endprologue
	movq	%rcx, 16(%rbp)
	leaq	-208(%rbp), %rax
	movq	16(%rbp), %rdx
	movq	%rax, %rcx
	call	_ZL16stbi__start_fileP13stbi__contextP6_iobuf
	leaq	-208(%rbp), %rax
	movq	%rax, %rcx
	call	_ZL14stbi__hdr_testP13stbi__context
	nop
	addq	$240, %rsp
	popq	%rbp
	ret
	.seh_endproc
	.globl	stbi_is_hdr_from_callbacks
	.def	stbi_is_hdr_from_callbacks;	.scl	2;	.type	32;	.endef
	.seh_proc	stbi_is_hdr_from_callbacks
stbi_is_hdr_from_callbacks:
	pushq	%rbp
	.seh_pushreg	%rbp
	movq	%rsp, %rbp
	.seh_setframe	%rbp, 0
	subq	$240, %rsp
	.seh_stackalloc	240
	.seh_endprologue
	movq	%rcx, 16(%rbp)
	movq	%rdx, 24(%rbp)
	movq	24(%rbp), %rdx
	leaq	-208(%rbp), %rax
	movq	%rdx, %r8
	movq	16(%rbp), %rdx
	movq	%rax, %rcx
	call	_ZL21stbi__start_callbacksP13stbi__contextP17stbi_io_callbacksPv
	leaq	-208(%rbp), %rax
	movq	%rax, %rcx
	call	_ZL14stbi__hdr_testP13stbi__context
	nop
	addq	$240, %rsp
	popq	%rbp
	ret
	.seh_endproc
	.data
	.align 4
_ZL17stbi__h2l_gamma_i:
	.long	1055439406
	.align 4
_ZL17stbi__h2l_scale_i:
	.long	1065353216
	.align 4
_ZL15stbi__l2h_gamma:
	.long	1074580685
	.align 4
_ZL15stbi__l2h_scale:
	.long	1065353216
	.text
	.globl	stbi_ldr_to_hdr_gamma
	.def	stbi_ldr_to_hdr_gamma;	.scl	2;	.type	32;	.endef
	.seh_proc	stbi_ldr_to_hdr_gamma
stbi_ldr_to_hdr_gamma:
	pushq	%rbp
	.seh_pushreg	%rbp
	movq	%rsp, %rbp
	.seh_setframe	%rbp, 0
	.seh_endprologue
	movss	%xmm0, 16(%rbp)
	movss	16(%rbp), %xmm0
	movss	%xmm0, _ZL15stbi__l2h_gamma(%rip)
	nop
	popq	%rbp
	ret
	.seh_endproc
	.globl	stbi_ldr_to_hdr_scale
	.def	stbi_ldr_to_hdr_scale;	.scl	2;	.type	32;	.endef
	.seh_proc	stbi_ldr_to_hdr_scale
stbi_ldr_to_hdr_scale:
	pushq	%rbp
	.seh_pushreg	%rbp
	movq	%rsp, %rbp
	.seh_setframe	%rbp, 0
	.seh_endprologue
	movss	%xmm0, 16(%rbp)
	movss	16(%rbp), %xmm0
	movss	%xmm0, _ZL15stbi__l2h_scale(%rip)
	nop
	popq	%rbp
	ret
	.seh_endproc
	.globl	stbi_hdr_to_ldr_gamma
	.def	stbi_hdr_to_ldr_gamma;	.scl	2;	.type	32;	.endef
	.seh_proc	stbi_hdr_to_ldr_gamma
stbi_hdr_to_ldr_gamma:
	pushq	%rbp
	.seh_pushreg	%rbp
	movq	%rsp, %rbp
	.seh_setframe	%rbp, 0
	.seh_endprologue
	movss	%xmm0, 16(%rbp)
	movss	.LC3(%rip), %xmm0
	divss	16(%rbp), %xmm0
	movss	%xmm0, _ZL17stbi__h2l_gamma_i(%rip)
	nop
	popq	%rbp
	ret
	.seh_endproc
	.globl	stbi_hdr_to_ldr_scale
	.def	stbi_hdr_to_ldr_scale;	.scl	2;	.type	32;	.endef
	.seh_proc	stbi_hdr_to_ldr_scale
stbi_hdr_to_ldr_scale:
	pushq	%rbp
	.seh_pushreg	%rbp
	movq	%rsp, %rbp
	.seh_setframe	%rbp, 0
	.seh_endprologue
	movss	%xmm0, 16(%rbp)
	movss	.LC3(%rip), %xmm0
	divss	16(%rbp), %xmm0
	movss	%xmm0, _ZL17stbi__h2l_scale_i(%rip)
	nop
	popq	%rbp
	ret
	.seh_endproc
	.def	_ZL19stbi__refill_bufferP13stbi__context;	.scl	3;	.type	32;	.endef
	.seh_proc	_ZL19stbi__refill_bufferP13stbi__context
_ZL19stbi__refill_bufferP13stbi__context:
	pushq	%rbp
	.seh_pushreg	%rbp
	movq	%rsp, %rbp
	.seh_setframe	%rbp, 0
	subq	$48, %rsp
	.seh_stackalloc	48
	.seh_endprologue
	movq	%rcx, 16(%rbp)
	movq	16(%rbp), %rax
	movq	16(%rax), %rax
	movq	16(%rbp), %rdx
	movl	52(%rdx), %r8d
	movq	16(%rbp), %rdx
	addq	$56, %rdx
	movq	16(%rbp), %rcx
	movq	40(%rcx), %rcx
	call	*%rax
	movl	%eax, -4(%rbp)
	cmpl	$0, -4(%rbp)
	jne	.L119
	movq	16(%rbp), %rax
	movl	$0, 48(%rax)
	movq	16(%rbp), %rax
	leaq	56(%rax), %rdx
	movq	16(%rbp), %rax
	movq	%rdx, 184(%rax)
	movq	16(%rbp), %rax
	addq	$56, %rax
	leaq	1(%rax), %rdx
	movq	16(%rbp), %rax
	movq	%rdx, 192(%rax)
	movq	16(%rbp), %rax
	movq	184(%rax), %rax
	movb	$0, (%rax)
	jmp	.L121
.L119:
	movq	16(%rbp), %rax
	leaq	56(%rax), %rdx
	movq	16(%rbp), %rax
	movq	%rdx, 184(%rax)
	movq	16(%rbp), %rax
	leaq	56(%rax), %rdx
	movl	-4(%rbp), %eax
	cltq
	addq	%rax, %rdx
	movq	16(%rbp), %rax
	movq	%rdx, 192(%rax)
.L121:
	nop
	addq	$48, %rsp
	popq	%rbp
	ret
	.seh_endproc
	.def	_ZL10stbi__get8P13stbi__context;	.scl	3;	.type	32;	.endef
	.seh_proc	_ZL10stbi__get8P13stbi__context
_ZL10stbi__get8P13stbi__context:
	pushq	%rbp
	.seh_pushreg	%rbp
	movq	%rsp, %rbp
	.seh_setframe	%rbp, 0
	subq	$32, %rsp
	.seh_stackalloc	32
	.seh_endprologue
	movq	%rcx, 16(%rbp)
	movq	16(%rbp), %rax
	movq	184(%rax), %rdx
	movq	16(%rbp), %rax
	movq	192(%rax), %rax
	cmpq	%rax, %rdx
	jnb	.L123
	movq	16(%rbp), %rax
	movq	184(%rax), %rax
	leaq	1(%rax), %rdx
	movq	16(%rbp), %rcx
	movq	%rdx, 184(%rcx)
	movzbl	(%rax), %eax
	jmp	.L124
.L123:
	movq	16(%rbp), %rax
	movl	48(%rax), %eax
	testl	%eax, %eax
	je	.L125
	movq	16(%rbp), %rcx
	call	_ZL19stbi__refill_bufferP13stbi__context
	movq	16(%rbp), %rax
	movq	184(%rax), %rax
	leaq	1(%rax), %rdx
	movq	16(%rbp), %rcx
	movq	%rdx, 184(%rcx)
	movzbl	(%rax), %eax
	jmp	.L124
.L125:
	movl	$0, %eax
.L124:
	addq	$32, %rsp
	popq	%rbp
	ret
	.seh_endproc
	.def	_ZL12stbi__at_eofP13stbi__context;	.scl	3;	.type	32;	.endef
	.seh_proc	_ZL12stbi__at_eofP13stbi__context
_ZL12stbi__at_eofP13stbi__context:
	pushq	%rbp
	.seh_pushreg	%rbp
	movq	%rsp, %rbp
	.seh_setframe	%rbp, 0
	subq	$32, %rsp
	.seh_stackalloc	32
	.seh_endprologue
	movq	%rcx, 16(%rbp)
	movq	16(%rbp), %rax
	movq	16(%rax), %rax
	testq	%rax, %rax
	je	.L127
	movq	16(%rbp), %rax
	movq	32(%rax), %rax
	movq	16(%rbp), %rdx
	movq	40(%rdx), %rdx
	movq	%rdx, %rcx
	call	*%rax
	testl	%eax, %eax
	sete	%al
	testb	%al, %al
	je	.L128
	movl	$0, %eax
	jmp	.L129
.L128:
	movq	16(%rbp), %rax
	movl	48(%rax), %eax
	testl	%eax, %eax
	jne	.L127
	movl	$1, %eax
	jmp	.L129
.L127:
	movq	16(%rbp), %rax
	movq	184(%rax), %rdx
	movq	16(%rbp), %rax
	movq	192(%rax), %rax
	cmpq	%rax, %rdx
	setnb	%al
	movzbl	%al, %eax
.L129:
	addq	$32, %rsp
	popq	%rbp
	ret
	.seh_endproc
	.def	_ZL10stbi__skipP13stbi__contexti;	.scl	3;	.type	32;	.endef
	.seh_proc	_ZL10stbi__skipP13stbi__contexti
_ZL10stbi__skipP13stbi__contexti:
	pushq	%rbp
	.seh_pushreg	%rbp
	movq	%rsp, %rbp
	.seh_setframe	%rbp, 0
	subq	$48, %rsp
	.seh_stackalloc	48
	.seh_endprologue
	movq	%rcx, 16(%rbp)
	movl	%edx, 24(%rbp)
	cmpl	$0, 24(%rbp)
	jns	.L131
	movq	16(%rbp), %rax
	movq	192(%rax), %rdx
	movq	16(%rbp), %rax
	movq	%rdx, 184(%rax)
	jmp	.L130
.L131:
	movq	16(%rbp), %rax
	movq	16(%rax), %rax
	testq	%rax, %rax
	je	.L133
	movq	16(%rbp), %rax
	movq	192(%rax), %rdx
	movq	16(%rbp), %rax
	movq	184(%rax), %rax
	subq	%rax, %rdx
	movq	%rdx, %rax
	movl	%eax, -4(%rbp)
	movl	-4(%rbp), %eax
	cmpl	24(%rbp), %eax
	jge	.L133
	movq	16(%rbp), %rax
	movq	192(%rax), %rdx
	movq	16(%rbp), %rax
	movq	%rdx, 184(%rax)
	movq	16(%rbp), %rax
	movq	24(%rax), %r8
	movl	24(%rbp), %eax
	subl	-4(%rbp), %eax
	movq	16(%rbp), %rdx
	movq	40(%rdx), %rcx
	movl	%eax, %edx
	call	*%r8
	jmp	.L130
.L133:
	movq	16(%rbp), %rax
	movq	184(%rax), %rdx
	movl	24(%rbp), %eax
	cltq
	addq	%rax, %rdx
	movq	16(%rbp), %rax
	movq	%rdx, 184(%rax)
.L130:
	addq	$48, %rsp
	popq	%rbp
	ret
	.seh_endproc
	.def	_ZL10stbi__getnP13stbi__contextPhi;	.scl	3;	.type	32;	.endef
	.seh_proc	_ZL10stbi__getnP13stbi__contextPhi
_ZL10stbi__getnP13stbi__contextPhi:
	pushq	%rbp
	.seh_pushreg	%rbp
	movq	%rsp, %rbp
	.seh_setframe	%rbp, 0
	subq	$48, %rsp
	.seh_stackalloc	48
	.seh_endprologue
	movq	%rcx, 16(%rbp)
	movq	%rdx, 24(%rbp)
	movl	%r8d, 32(%rbp)
	movq	16(%rbp), %rax
	movq	16(%rax), %rax
	testq	%rax, %rax
	je	.L136
	movq	16(%rbp), %rax
	movq	192(%rax), %rdx
	movq	16(%rbp), %rax
	movq	184(%rax), %rax
	subq	%rax, %rdx
	movq	%rdx, %rax
	movl	%eax, -4(%rbp)
	movl	-4(%rbp), %eax
	cmpl	32(%rbp), %eax
	jge	.L136
	movl	-4(%rbp), %eax
	movslq	%eax, %rcx
	movq	16(%rbp), %rax
	movq	184(%rax), %rdx
	movq	24(%rbp), %rax
	movq	%rcx, %r8
	movq	%rax, %rcx
	call	memcpy
	movq	16(%rbp), %rax
	movq	16(%rax), %rax
	movl	32(%rbp), %edx
	subl	-4(%rbp), %edx
	movl	%edx, %r8d
	movl	-4(%rbp), %edx
	movslq	%edx, %rdx
	movq	24(%rbp), %rcx
	addq	%rcx, %rdx
	movq	16(%rbp), %rcx
	movq	40(%rcx), %rcx
	call	*%rax
	movl	%eax, -8(%rbp)
	movl	32(%rbp), %eax
	subl	-4(%rbp), %eax
	cmpl	%eax, -8(%rbp)
	sete	%al
	movzbl	%al, %eax
	movl	%eax, -12(%rbp)
	movq	16(%rbp), %rax
	movq	192(%rax), %rdx
	movq	16(%rbp), %rax
	movq	%rdx, 184(%rax)
	movl	-12(%rbp), %eax
	jmp	.L138
.L136:
	movq	16(%rbp), %rax
	movq	184(%rax), %rdx
	movl	32(%rbp), %eax
	cltq
	addq	%rax, %rdx
	movq	16(%rbp), %rax
	movq	192(%rax), %rax
	cmpq	%rax, %rdx
	ja	.L139
	movl	32(%rbp), %eax
	movslq	%eax, %rcx
	movq	16(%rbp), %rax
	movq	184(%rax), %rdx
	movq	24(%rbp), %rax
	movq	%rcx, %r8
	movq	%rax, %rcx
	call	memcpy
	movq	16(%rbp), %rax
	movq	184(%rax), %rdx
	movl	32(%rbp), %eax
	cltq
	addq	%rax, %rdx
	movq	16(%rbp), %rax
	movq	%rdx, 184(%rax)
	movl	$1, %eax
	jmp	.L138
.L139:
	movl	$0, %eax
.L138:
	addq	$48, %rsp
	popq	%rbp
	ret
	.seh_endproc
	.def	_ZL13stbi__get16beP13stbi__context;	.scl	3;	.type	32;	.endef
	.seh_proc	_ZL13stbi__get16beP13stbi__context
_ZL13stbi__get16beP13stbi__context:
	pushq	%rbp
	.seh_pushreg	%rbp
	pushq	%rbx
	.seh_pushreg	%rbx
	subq	$56, %rsp
	.seh_stackalloc	56
	leaq	128(%rsp), %rbp
	.seh_setframe	%rbp, 128
	.seh_endprologue
	movq	%rcx, -48(%rbp)
	movq	-48(%rbp), %rcx
	call	_ZL10stbi__get8P13stbi__context
	movzbl	%al, %eax
	movl	%eax, -84(%rbp)
	movl	-84(%rbp), %eax
	sall	$8, %eax
	movl	%eax, %ebx
	movq	-48(%rbp), %rcx
	call	_ZL10stbi__get8P13stbi__context
	movzbl	%al, %eax
	addl	%ebx, %eax
	addq	$56, %rsp
	popq	%rbx
	popq	%rbp
	ret
	.seh_endproc
	.def	_ZL13stbi__get32beP13stbi__context;	.scl	3;	.type	32;	.endef
	.seh_proc	_ZL13stbi__get32beP13stbi__context
_ZL13stbi__get32beP13stbi__context:
	pushq	%rbp
	.seh_pushreg	%rbp
	pushq	%rbx
	.seh_pushreg	%rbx
	subq	$56, %rsp
	.seh_stackalloc	56
	leaq	128(%rsp), %rbp
	.seh_setframe	%rbp, 128
	.seh_endprologue
	movq	%rcx, -48(%rbp)
	movq	-48(%rbp), %rcx
	call	_ZL13stbi__get16beP13stbi__context
	movl	%eax, -84(%rbp)
	movl	-84(%rbp), %eax
	sall	$16, %eax
	movl	%eax, %ebx
	movq	-48(%rbp), %rcx
	call	_ZL13stbi__get16beP13stbi__context
	addl	%ebx, %eax
	addq	$56, %rsp
	popq	%rbx
	popq	%rbp
	ret
	.seh_endproc
	.def	_ZL13stbi__get16leP13stbi__context;	.scl	3;	.type	32;	.endef
	.seh_proc	_ZL13stbi__get16leP13stbi__context
_ZL13stbi__get16leP13stbi__context:
	pushq	%rbp
	.seh_pushreg	%rbp
	movq	%rsp, %rbp
	.seh_setframe	%rbp, 0
	subq	$48, %rsp
	.seh_stackalloc	48
	.seh_endprologue
	movq	%rcx, 16(%rbp)
	movq	16(%rbp), %rcx
	call	_ZL10stbi__get8P13stbi__context
	movzbl	%al, %eax
	movl	%eax, -4(%rbp)
	movq	16(%rbp), %rcx
	call	_ZL10stbi__get8P13stbi__context
	movzbl	%al, %eax
	sall	$8, %eax
	movl	%eax, %edx
	movl	-4(%rbp), %eax
	addl	%edx, %eax
	addq	$48, %rsp
	popq	%rbp
	ret
	.seh_endproc
	.def	_ZL13stbi__get32leP13stbi__context;	.scl	3;	.type	32;	.endef
	.seh_proc	_ZL13stbi__get32leP13stbi__context
_ZL13stbi__get32leP13stbi__context:
	pushq	%rbp
	.seh_pushreg	%rbp
	movq	%rsp, %rbp
	.seh_setframe	%rbp, 0
	subq	$48, %rsp
	.seh_stackalloc	48
	.seh_endprologue
	movq	%rcx, 16(%rbp)
	movq	16(%rbp), %rcx
	call	_ZL13stbi__get16leP13stbi__context
	movl	%eax, -4(%rbp)
	movq	16(%rbp), %rcx
	call	_ZL13stbi__get16leP13stbi__context
	sall	$16, %eax
	movl	%eax, %edx
	movl	-4(%rbp), %eax
	addl	%edx, %eax
	addq	$48, %rsp
	popq	%rbp
	ret
	.seh_endproc
	.def	_ZL15stbi__compute_yiii;	.scl	3;	.type	32;	.endef
	.seh_proc	_ZL15stbi__compute_yiii
_ZL15stbi__compute_yiii:
	pushq	%rbp
	.seh_pushreg	%rbp
	movq	%rsp, %rbp
	.seh_setframe	%rbp, 0
	.seh_endprologue
	movl	%ecx, 16(%rbp)
	movl	%edx, 24(%rbp)
	movl	%r8d, 32(%rbp)
	movl	16(%rbp), %eax
	imull	$77, %eax, %edx
	movl	24(%rbp), %eax
	imull	$150, %eax, %eax
	addl	%eax, %edx
	movl	32(%rbp), %eax
	imull	$29, %eax, %eax
	addl	%edx, %eax
	sarl	$8, %eax
	popq	%rbp
	ret
	.seh_endproc
	.section .rdata,"dr"
.LC4:
	.ascii "stb_image.h\0"
	.align 8
.LC5:
	.ascii "req_comp >= 1 && req_comp <= 4\0"
.LC6:
	.ascii "outofmem\0"
.LC7:
	.ascii "0\0"
	.text
	.def	_ZL20stbi__convert_formatPhiijj;	.scl	3;	.type	32;	.endef
	.seh_proc	_ZL20stbi__convert_formatPhiijj
_ZL20stbi__convert_formatPhiijj:
	pushq	%rbp
	.seh_pushreg	%rbp
	movq	%rsp, %rbp
	.seh_setframe	%rbp, 0
	subq	$64, %rsp
	.seh_stackalloc	64
	.seh_endprologue
	movq	%rcx, 16(%rbp)
	movl	%edx, 24(%rbp)
	movl	%r8d, 32(%rbp)
	movl	%r9d, 40(%rbp)
	movl	32(%rbp), %edx
	movl	24(%rbp), %eax
	cmpl	%eax, %edx
	jne	.L151
	movq	16(%rbp), %rax
	jmp	.L152
.L151:
	movl	32(%rbp), %eax
	testl	%eax, %eax
	jle	.L153
	movl	32(%rbp), %eax
	cmpl	$4, %eax
	jle	.L199
.L153:
	movl	$1325, %r8d
	leaq	.LC4(%rip), %rdx
	leaq	.LC5(%rip), %rcx
	call	_assert
	jmp	.L156
.L199:
	nop
.L156:
	movl	32(%rbp), %eax
	imull	40(%rbp), %eax
	imull	48(%rbp), %eax
	movl	%eax, %eax
	movq	%rax, %rcx
	call	_ZL12stbi__mallocy
	movq	%rax, -32(%rbp)
	cmpq	$0, -32(%rbp)
	jne	.L157
	movq	16(%rbp), %rcx
	call	free
	leaq	.LC6(%rip), %rcx
	call	_ZL9stbi__errPKc
	movl	$0, %eax
	jmp	.L152
.L157:
	movl	$0, -8(%rbp)
.L198:
	movl	48(%rbp), %eax
	cmpl	%eax, -8(%rbp)
	jge	.L158
	movl	-8(%rbp), %eax
	imull	40(%rbp), %eax
	movl	24(%rbp), %edx
	imull	%edx, %eax
	movl	%eax, %edx
	movq	16(%rbp), %rax
	addq	%rdx, %rax
	movq	%rax, -16(%rbp)
	movl	-8(%rbp), %eax
	imull	40(%rbp), %eax
	movl	32(%rbp), %edx
	imull	%edx, %eax
	movl	%eax, %edx
	movq	-32(%rbp), %rax
	addq	%rdx, %rax
	movq	%rax, -24(%rbp)
	movl	24(%rbp), %eax
	leal	0(,%rax,8), %edx
	movl	32(%rbp), %eax
	addl	%edx, %eax
	subl	$10, %eax
	cmpl	$25, %eax
	ja	.L159
	movl	%eax, %eax
	leaq	0(,%rax,4), %rdx
	leaq	.L161(%rip), %rax
	movl	(%rdx,%rax), %eax
	cltq
	leaq	.L161(%rip), %rdx
	addq	%rdx, %rax
	jmp	*%rax
	.section .rdata,"dr"
	.align 4
.L161:
	.long	.L172-.L161
	.long	.L171-.L161
	.long	.L170-.L161
	.long	.L159-.L161
	.long	.L159-.L161
	.long	.L159-.L161
	.long	.L159-.L161
	.long	.L169-.L161
	.long	.L159-.L161
	.long	.L168-.L161
	.long	.L167-.L161
	.long	.L159-.L161
	.long	.L159-.L161
	.long	.L159-.L161
	.long	.L159-.L161
	.long	.L166-.L161
	.long	.L165-.L161
	.long	.L159-.L161
	.long	.L164-.L161
	.long	.L159-.L161
	.long	.L159-.L161
	.long	.L159-.L161
	.long	.L159-.L161
	.long	.L163-.L161
	.long	.L162-.L161
	.long	.L160-.L161
	.text
.L172:
	movl	40(%rbp), %eax
	subl	$1, %eax
	movl	%eax, -4(%rbp)
.L174:
	cmpl	$0, -4(%rbp)
	js	.L200
	movq	-16(%rbp), %rax
	movzbl	(%rax), %eax
	movq	-24(%rbp), %rdx
	movb	%al, (%rdx)
	movq	-24(%rbp), %rax
	addq	$1, %rax
	movb	$-1, (%rax)
	subl	$1, -4(%rbp)
	addq	$1, -16(%rbp)
	addq	$2, -24(%rbp)
	jmp	.L174
.L171:
	movl	40(%rbp), %eax
	subl	$1, %eax
	movl	%eax, -4(%rbp)
.L177:
	cmpl	$0, -4(%rbp)
	js	.L201
	movq	-24(%rbp), %rax
	leaq	2(%rax), %rdx
	movq	-16(%rbp), %rax
	movzbl	(%rax), %eax
	movb	%al, (%rdx)
	movq	-24(%rbp), %rax
	addq	$1, %rax
	movzbl	(%rdx), %edx
	movb	%dl, (%rax)
	movzbl	(%rax), %eax
	movq	-24(%rbp), %rdx
	movb	%al, (%rdx)
	subl	$1, -4(%rbp)
	addq	$1, -16(%rbp)
	addq	$3, -24(%rbp)
	jmp	.L177
.L170:
	movl	40(%rbp), %eax
	subl	$1, %eax
	movl	%eax, -4(%rbp)
.L179:
	cmpl	$0, -4(%rbp)
	js	.L202
	movq	-24(%rbp), %rax
	leaq	2(%rax), %rdx
	movq	-16(%rbp), %rax
	movzbl	(%rax), %eax
	movb	%al, (%rdx)
	movq	-24(%rbp), %rax
	addq	$1, %rax
	movzbl	(%rdx), %edx
	movb	%dl, (%rax)
	movzbl	(%rax), %eax
	movq	-24(%rbp), %rdx
	movb	%al, (%rdx)
	movq	-24(%rbp), %rax
	addq	$3, %rax
	movb	$-1, (%rax)
	subl	$1, -4(%rbp)
	addq	$1, -16(%rbp)
	addq	$4, -24(%rbp)
	jmp	.L179
.L169:
	movl	40(%rbp), %eax
	subl	$1, %eax
	movl	%eax, -4(%rbp)
.L181:
	cmpl	$0, -4(%rbp)
	js	.L203
	movq	-16(%rbp), %rax
	movzbl	(%rax), %eax
	movq	-24(%rbp), %rdx
	movb	%al, (%rdx)
	subl	$1, -4(%rbp)
	addq	$2, -16(%rbp)
	addq	$1, -24(%rbp)
	jmp	.L181
.L168:
	movl	40(%rbp), %eax
	subl	$1, %eax
	movl	%eax, -4(%rbp)
.L183:
	cmpl	$0, -4(%rbp)
	js	.L204
	movq	-24(%rbp), %rax
	leaq	2(%rax), %rdx
	movq	-16(%rbp), %rax
	movzbl	(%rax), %eax
	movb	%al, (%rdx)
	movq	-24(%rbp), %rax
	addq	$1, %rax
	movzbl	(%rdx), %edx
	movb	%dl, (%rax)
	movzbl	(%rax), %eax
	movq	-24(%rbp), %rdx
	movb	%al, (%rdx)
	subl	$1, -4(%rbp)
	addq	$2, -16(%rbp)
	addq	$3, -24(%rbp)
	jmp	.L183
.L167:
	movl	40(%rbp), %eax
	subl	$1, %eax
	movl	%eax, -4(%rbp)
.L185:
	cmpl	$0, -4(%rbp)
	js	.L205
	movq	-24(%rbp), %rax
	leaq	2(%rax), %rdx
	movq	-16(%rbp), %rax
	movzbl	(%rax), %eax
	movb	%al, (%rdx)
	movq	-24(%rbp), %rax
	addq	$1, %rax
	movzbl	(%rdx), %edx
	movb	%dl, (%rax)
	movzbl	(%rax), %eax
	movq	-24(%rbp), %rdx
	movb	%al, (%rdx)
	movq	-24(%rbp), %rax
	leaq	3(%rax), %rdx
	movq	-16(%rbp), %rax
	movzbl	1(%rax), %eax
	movb	%al, (%rdx)
	subl	$1, -4(%rbp)
	addq	$2, -16(%rbp)
	addq	$4, -24(%rbp)
	jmp	.L185
.L164:
	movl	40(%rbp), %eax
	subl	$1, %eax
	movl	%eax, -4(%rbp)
.L187:
	cmpl	$0, -4(%rbp)
	js	.L206
	movq	-16(%rbp), %rax
	movzbl	(%rax), %eax
	movq	-24(%rbp), %rdx
	movb	%al, (%rdx)
	movq	-24(%rbp), %rax
	leaq	1(%rax), %rdx
	movq	-16(%rbp), %rax
	movzbl	1(%rax), %eax
	movb	%al, (%rdx)
	movq	-24(%rbp), %rax
	leaq	2(%rax), %rdx
	movq	-16(%rbp), %rax
	movzbl	2(%rax), %eax
	movb	%al, (%rdx)
	movq	-24(%rbp), %rax
	addq	$3, %rax
	movb	$-1, (%rax)
	subl	$1, -4(%rbp)
	addq	$3, -16(%rbp)
	addq	$4, -24(%rbp)
	jmp	.L187
.L166:
	movl	40(%rbp), %eax
	subl	$1, %eax
	movl	%eax, -4(%rbp)
.L189:
	cmpl	$0, -4(%rbp)
	js	.L207
	movq	-16(%rbp), %rax
	addq	$2, %rax
	movzbl	(%rax), %eax
	movzbl	%al, %ecx
	movq	-16(%rbp), %rax
	addq	$1, %rax
	movzbl	(%rax), %eax
	movzbl	%al, %edx
	movq	-16(%rbp), %rax
	movzbl	(%rax), %eax
	movzbl	%al, %eax
	movl	%ecx, %r8d
	movl	%eax, %ecx
	call	_ZL15stbi__compute_yiii
	movl	%eax, %edx
	movq	-24(%rbp), %rax
	movb	%dl, (%rax)
	subl	$1, -4(%rbp)
	addq	$3, -16(%rbp)
	addq	$1, -24(%rbp)
	jmp	.L189
.L165:
	movl	40(%rbp), %eax
	subl	$1, %eax
	movl	%eax, -4(%rbp)
.L191:
	cmpl	$0, -4(%rbp)
	js	.L208
	movq	-16(%rbp), %rax
	addq	$2, %rax
	movzbl	(%rax), %eax
	movzbl	%al, %ecx
	movq	-16(%rbp), %rax
	addq	$1, %rax
	movzbl	(%rax), %eax
	movzbl	%al, %edx
	movq	-16(%rbp), %rax
	movzbl	(%rax), %eax
	movzbl	%al, %eax
	movl	%ecx, %r8d
	movl	%eax, %ecx
	call	_ZL15stbi__compute_yiii
	movl	%eax, %edx
	movq	-24(%rbp), %rax
	movb	%dl, (%rax)
	movq	-24(%rbp), %rax
	addq	$1, %rax
	movb	$-1, (%rax)
	subl	$1, -4(%rbp)
	addq	$3, -16(%rbp)
	addq	$2, -24(%rbp)
	jmp	.L191
.L163:
	movl	40(%rbp), %eax
	subl	$1, %eax
	movl	%eax, -4(%rbp)
.L193:
	cmpl	$0, -4(%rbp)
	js	.L209
	movq	-16(%rbp), %rax
	addq	$2, %rax
	movzbl	(%rax), %eax
	movzbl	%al, %ecx
	movq	-16(%rbp), %rax
	addq	$1, %rax
	movzbl	(%rax), %eax
	movzbl	%al, %edx
	movq	-16(%rbp), %rax
	movzbl	(%rax), %eax
	movzbl	%al, %eax
	movl	%ecx, %r8d
	movl	%eax, %ecx
	call	_ZL15stbi__compute_yiii
	movl	%eax, %edx
	movq	-24(%rbp), %rax
	movb	%dl, (%rax)
	subl	$1, -4(%rbp)
	addq	$4, -16(%rbp)
	addq	$1, -24(%rbp)
	jmp	.L193
.L162:
	movl	40(%rbp), %eax
	subl	$1, %eax
	movl	%eax, -4(%rbp)
.L195:
	cmpl	$0, -4(%rbp)
	js	.L210
	movq	-16(%rbp), %rax
	addq	$2, %rax
	movzbl	(%rax), %eax
	movzbl	%al, %ecx
	movq	-16(%rbp), %rax
	addq	$1, %rax
	movzbl	(%rax), %eax
	movzbl	%al, %edx
	movq	-16(%rbp), %rax
	movzbl	(%rax), %eax
	movzbl	%al, %eax
	movl	%ecx, %r8d
	movl	%eax, %ecx
	call	_ZL15stbi__compute_yiii
	movl	%eax, %edx
	movq	-24(%rbp), %rax
	movb	%dl, (%rax)
	movq	-24(%rbp), %rax
	leaq	1(%rax), %rdx
	movq	-16(%rbp), %rax
	movzbl	3(%rax), %eax
	movb	%al, (%rdx)
	subl	$1, -4(%rbp)
	addq	$4, -16(%rbp)
	addq	$2, -24(%rbp)
	jmp	.L195
.L160:
	movl	40(%rbp), %eax
	subl	$1, %eax
	movl	%eax, -4(%rbp)
.L197:
	cmpl	$0, -4(%rbp)
	js	.L211
	movq	-16(%rbp), %rax
	movzbl	(%rax), %eax
	movq	-24(%rbp), %rdx
	movb	%al, (%rdx)
	movq	-24(%rbp), %rax
	leaq	1(%rax), %rdx
	movq	-16(%rbp), %rax
	movzbl	1(%rax), %eax
	movb	%al, (%rdx)
	movq	-24(%rbp), %rax
	leaq	2(%rax), %rdx
	movq	-16(%rbp), %rax
	movzbl	2(%rax), %eax
	movb	%al, (%rdx)
	subl	$1, -4(%rbp)
	addq	$4, -16(%rbp)
	addq	$3, -24(%rbp)
	jmp	.L197
.L159:
	movl	$1354, %r8d
	leaq	.LC4(%rip), %rdx
	leaq	.LC7(%rip), %rcx
	call	_assert
	jmp	.L175
.L200:
	nop
	jmp	.L175
.L201:
	nop
	jmp	.L175
.L202:
	nop
	jmp	.L175
.L203:
	nop
	jmp	.L175
.L204:
	nop
	jmp	.L175
.L205:
	nop
	jmp	.L175
.L206:
	nop
	jmp	.L175
.L207:
	nop
	jmp	.L175
.L208:
	nop
	jmp	.L175
.L209:
	nop
	jmp	.L175
.L210:
	nop
	jmp	.L175
.L211:
	nop
.L175:
	addl	$1, -8(%rbp)
	jmp	.L198
.L158:
	movq	16(%rbp), %rcx
	call	free
	movq	-32(%rbp), %rax
.L152:
	addq	$64, %rsp
	popq	%rbp
	ret
	.seh_endproc
	.def	_ZL16stbi__ldr_to_hdrPhiii;	.scl	3;	.type	32;	.endef
	.seh_proc	_ZL16stbi__ldr_to_hdrPhiii
_ZL16stbi__ldr_to_hdrPhiii:
	pushq	%rbp
	.seh_pushreg	%rbp
	movq	%rsp, %rbp
	.seh_setframe	%rbp, 0
	subq	$64, %rsp
	.seh_stackalloc	64
	.seh_endprologue
	movq	%rcx, 16(%rbp)
	movl	%edx, 24(%rbp)
	movl	%r8d, 32(%rbp)
	movl	%r9d, 40(%rbp)
	movl	24(%rbp), %eax
	imull	32(%rbp), %eax
	imull	40(%rbp), %eax
	cltq
	salq	$2, %rax
	movq	%rax, %rcx
	call	_ZL12stbi__mallocy
	movq	%rax, -24(%rbp)
	cmpq	$0, -24(%rbp)
	jne	.L213
	movq	16(%rbp), %rcx
	call	free
	leaq	.LC6(%rip), %rcx
	call	_ZL9stbi__errPKc
	movl	$0, %eax
	jmp	.L214
.L213:
	movl	40(%rbp), %eax
	andl	$1, %eax
	testl	%eax, %eax
	je	.L215
	movl	40(%rbp), %eax
	movl	%eax, -12(%rbp)
	jmp	.L216
.L215:
	movl	40(%rbp), %eax
	subl	$1, %eax
	movl	%eax, -12(%rbp)
.L216:
	movl	$0, -4(%rbp)
.L221:
	movl	24(%rbp), %eax
	imull	32(%rbp), %eax
	cmpl	%eax, -4(%rbp)
	jge	.L217
	movl	$0, -8(%rbp)
.L219:
	movl	-8(%rbp), %eax
	cmpl	-12(%rbp), %eax
	jge	.L218
	movss	_ZL15stbi__l2h_gamma(%rip), %xmm2
	movl	-4(%rbp), %eax
	imull	40(%rbp), %eax
	movl	-8(%rbp), %edx
	addl	%edx, %eax
	cltq
	movq	16(%rbp), %rdx
	addq	%rdx, %rax
	movzbl	(%rax), %eax
	movzbl	%al, %eax
	cvtsi2ss	%eax, %xmm0
	movss	.LC8(%rip), %xmm1
	divss	%xmm1, %xmm0
	movaps	%xmm2, %xmm1
	call	_ZSt3powff
	movaps	%xmm0, %xmm1
	movss	_ZL15stbi__l2h_scale(%rip), %xmm0
	movl	-4(%rbp), %eax
	imull	40(%rbp), %eax
	movl	-8(%rbp), %edx
	addl	%edx, %eax
	cltq
	leaq	0(,%rax,4), %rdx
	movq	-24(%rbp), %rax
	addq	%rdx, %rax
	mulss	%xmm1, %xmm0
	movss	%xmm0, (%rax)
	addl	$1, -8(%rbp)
	jmp	.L219
.L218:
	movl	-8(%rbp), %eax
	cmpl	40(%rbp), %eax
	jge	.L220
	movl	-4(%rbp), %eax
	imull	40(%rbp), %eax
	movl	-8(%rbp), %edx
	addl	%edx, %eax
	cltq
	movq	16(%rbp), %rdx
	addq	%rdx, %rax
	movzbl	(%rax), %eax
	movzbl	%al, %eax
	cvtsi2ss	%eax, %xmm0
	movl	-4(%rbp), %eax
	imull	40(%rbp), %eax
	movl	-8(%rbp), %edx
	addl	%edx, %eax
	cltq
	leaq	0(,%rax,4), %rdx
	movq	-24(%rbp), %rax
	addq	%rdx, %rax
	movss	.LC8(%rip), %xmm1
	divss	%xmm1, %xmm0
	movss	%xmm0, (%rax)
.L220:
	addl	$1, -4(%rbp)
	jmp	.L221
.L217:
	movq	16(%rbp), %rcx
	call	free
	movq	-24(%rbp), %rax
.L214:
	addq	$64, %rsp
	popq	%rbp
	ret
	.seh_endproc
	.def	_ZL16stbi__hdr_to_ldrPfiii;	.scl	3;	.type	32;	.endef
	.seh_proc	_ZL16stbi__hdr_to_ldrPfiii
_ZL16stbi__hdr_to_ldrPfiii:
	pushq	%rbp
	.seh_pushreg	%rbp
	movq	%rsp, %rbp
	.seh_setframe	%rbp, 0
	subq	$64, %rsp
	.seh_stackalloc	64
	.seh_endprologue
	movq	%rcx, 16(%rbp)
	movl	%edx, 24(%rbp)
	movl	%r8d, 32(%rbp)
	movl	%r9d, 40(%rbp)
	movl	24(%rbp), %eax
	imull	32(%rbp), %eax
	imull	40(%rbp), %eax
	cltq
	movq	%rax, %rcx
	call	_ZL12stbi__mallocy
	movq	%rax, -24(%rbp)
	cmpq	$0, -24(%rbp)
	jne	.L223
	movq	16(%rbp), %rcx
	call	free
	leaq	.LC6(%rip), %rcx
	call	_ZL9stbi__errPKc
	movl	$0, %eax
	jmp	.L224
.L223:
	movl	40(%rbp), %eax
	andl	$1, %eax
	testl	%eax, %eax
	je	.L225
	movl	40(%rbp), %eax
	movl	%eax, -12(%rbp)
	jmp	.L226
.L225:
	movl	40(%rbp), %eax
	subl	$1, %eax
	movl	%eax, -12(%rbp)
.L226:
	movl	$0, -4(%rbp)
.L239:
	movl	24(%rbp), %eax
	imull	32(%rbp), %eax
	cmpl	%eax, -4(%rbp)
	jge	.L227
	movl	$0, -8(%rbp)
.L233:
	movl	-8(%rbp), %eax
	cmpl	-12(%rbp), %eax
	jge	.L228
	movss	_ZL17stbi__h2l_gamma_i(%rip), %xmm2
	movl	-4(%rbp), %eax
	imull	40(%rbp), %eax
	movl	-8(%rbp), %edx
	addl	%edx, %eax
	cltq
	leaq	0(,%rax,4), %rdx
	movq	16(%rbp), %rax
	addq	%rdx, %rax
	movss	(%rax), %xmm1
	movss	_ZL17stbi__h2l_scale_i(%rip), %xmm0
	mulss	%xmm1, %xmm0
	movaps	%xmm2, %xmm1
	call	_ZSt3powff
	movaps	%xmm0, %xmm1
	movss	.LC8(%rip), %xmm0
	mulss	%xmm0, %xmm1
	movss	.LC9(%rip), %xmm0
	addss	%xmm1, %xmm0
	movss	%xmm0, -28(%rbp)
	movss	-28(%rbp), %xmm1
	pxor	%xmm0, %xmm0
	comiss	%xmm1, %xmm0
	jbe	.L229
	pxor	%xmm0, %xmm0
	movss	%xmm0, -28(%rbp)
.L229:
	movss	-28(%rbp), %xmm0
	comiss	.LC8(%rip), %xmm0
	jbe	.L231
	movss	.LC8(%rip), %xmm0
	movss	%xmm0, -28(%rbp)
.L231:
	movss	-28(%rbp), %xmm0
	cvttss2si	%xmm0, %ecx
	movl	-4(%rbp), %eax
	imull	40(%rbp), %eax
	movl	-8(%rbp), %edx
	addl	%edx, %eax
	cltq
	movq	-24(%rbp), %rdx
	addq	%rdx, %rax
	movl	%ecx, %edx
	movb	%dl, (%rax)
	addl	$1, -8(%rbp)
	jmp	.L233
.L228:
	movl	-8(%rbp), %eax
	cmpl	40(%rbp), %eax
	jge	.L234
	movl	-4(%rbp), %eax
	imull	40(%rbp), %eax
	movl	-8(%rbp), %edx
	addl	%edx, %eax
	cltq
	leaq	0(,%rax,4), %rdx
	movq	16(%rbp), %rax
	addq	%rdx, %rax
	movss	(%rax), %xmm1
	movss	.LC8(%rip), %xmm0
	mulss	%xmm0, %xmm1
	movss	.LC9(%rip), %xmm0
	addss	%xmm1, %xmm0
	movss	%xmm0, -32(%rbp)
	movss	-32(%rbp), %xmm1
	pxor	%xmm0, %xmm0
	comiss	%xmm1, %xmm0
	jbe	.L235
	pxor	%xmm0, %xmm0
	movss	%xmm0, -32(%rbp)
.L235:
	movss	-32(%rbp), %xmm0
	comiss	.LC8(%rip), %xmm0
	jbe	.L237
	movss	.LC8(%rip), %xmm0
	movss	%xmm0, -32(%rbp)
.L237:
	movss	-32(%rbp), %xmm0
	cvttss2si	%xmm0, %ecx
	movl	-4(%rbp), %eax
	imull	40(%rbp), %eax
	movl	-8(%rbp), %edx
	addl	%edx, %eax
	cltq
	movq	-24(%rbp), %rdx
	addq	%rdx, %rax
	movl	%ecx, %edx
	movb	%dl, (%rax)
.L234:
	addl	$1, -4(%rbp)
	jmp	.L239
.L227:
	movq	16(%rbp), %rcx
	call	free
	movq	-24(%rbp), %rax
.L224:
	addq	$64, %rsp
	popq	%rbp
	ret
	.seh_endproc
	.section .rdata,"dr"
.LC11:
	.ascii "bad code lengths\0"
	.text
	.def	_ZL19stbi__build_huffmanP13stbi__huffmanPi;	.scl	3;	.type	32;	.endef
	.seh_proc	_ZL19stbi__build_huffmanP13stbi__huffmanPi
_ZL19stbi__build_huffmanP13stbi__huffmanPi:
	pushq	%rbp
	.seh_pushreg	%rbp
	movq	%rsp, %rbp
	.seh_setframe	%rbp, 0
	subq	$64, %rsp
	.seh_stackalloc	64
	.seh_endprologue
	movq	%rcx, 16(%rbp)
	movq	%rdx, 24(%rbp)
	movl	$0, -12(%rbp)
	movl	$0, -4(%rbp)
.L248:
	cmpl	$15, -4(%rbp)
	jg	.L245
	movl	$0, -8(%rbp)
.L247:
	movl	-4(%rbp), %eax
	cltq
	leaq	0(,%rax,4), %rdx
	movq	24(%rbp), %rax
	addq	%rdx, %rax
	movl	(%rax), %eax
	cmpl	%eax, -8(%rbp)
	jge	.L246
	movl	-4(%rbp), %eax
	movl	%eax, %ecx
	movl	-12(%rbp), %eax
	leal	1(%rax), %edx
	movl	%edx, -12(%rbp)
	leal	1(%rcx), %edx
	movq	16(%rbp), %rcx
	cltq
	movb	%dl, 1280(%rcx,%rax)
	addl	$1, -8(%rbp)
	jmp	.L247
.L246:
	addl	$1, -4(%rbp)
	jmp	.L248
.L245:
	movq	16(%rbp), %rdx
	movl	-12(%rbp), %eax
	cltq
	movb	$0, 1280(%rdx,%rax)
	movl	$0, -16(%rbp)
	movl	$0, -12(%rbp)
	movl	$1, -8(%rbp)
.L254:
	cmpl	$16, -8(%rbp)
	jg	.L249
	movl	-12(%rbp), %eax
	subl	-16(%rbp), %eax
	movq	16(%rbp), %rdx
	movl	-8(%rbp), %ecx
	movslq	%ecx, %rcx
	addq	$400, %rcx
	movl	%eax, 12(%rdx,%rcx,4)
	movq	16(%rbp), %rdx
	movl	-12(%rbp), %eax
	cltq
	movzbl	1280(%rdx,%rax), %eax
	movzbl	%al, %eax
	cmpl	%eax, -8(%rbp)
	jne	.L250
.L252:
	movq	16(%rbp), %rdx
	movl	-12(%rbp), %eax
	cltq
	movzbl	1280(%rdx,%rax), %eax
	movzbl	%al, %eax
	cmpl	%eax, -8(%rbp)
	jne	.L251
	movl	-16(%rbp), %edx
	leal	1(%rdx), %eax
	movl	%eax, -16(%rbp)
	movl	-12(%rbp), %eax
	leal	1(%rax), %ecx
	movl	%ecx, -12(%rbp)
	movl	%edx, %ecx
	movq	16(%rbp), %rdx
	cltq
	addq	$256, %rax
	movw	%cx, (%rdx,%rax,2)
	jmp	.L252
.L251:
	movl	-8(%rbp), %eax
	movl	$1, %edx
	movl	%eax, %ecx
	sall	%cl, %edx
	movl	%edx, %eax
	cmpl	%eax, -16(%rbp)
	jle	.L250
	leaq	.LC11(%rip), %rcx
	call	_ZL9stbi__errPKc
	jmp	.L253
.L250:
	movl	$16, %eax
	subl	-8(%rbp), %eax
	movl	-16(%rbp), %edx
	movl	%eax, %ecx
	sall	%cl, %edx
	movl	%edx, %eax
	movl	%eax, %ecx
	movq	16(%rbp), %rax
	movl	-8(%rbp), %edx
	movslq	%edx, %rdx
	addq	$384, %rdx
	movl	%ecx, 4(%rax,%rdx,4)
	sall	-16(%rbp)
	addl	$1, -8(%rbp)
	jmp	.L254
.L249:
	movq	16(%rbp), %rax
	movl	-8(%rbp), %edx
	movslq	%edx, %rdx
	addq	$384, %rdx
	movl	$-1, 4(%rax,%rdx,4)
	movq	16(%rbp), %rax
	movl	$512, %r8d
	movl	$255, %edx
	movq	%rax, %rcx
	call	memset
	movl	$0, -4(%rbp)
.L259:
	movl	-4(%rbp), %eax
	cmpl	-12(%rbp), %eax
	jge	.L255
	movq	16(%rbp), %rdx
	movl	-4(%rbp), %eax
	cltq
	movzbl	1280(%rdx,%rax), %eax
	movzbl	%al, %eax
	movl	%eax, -20(%rbp)
	cmpl	$9, -20(%rbp)
	jg	.L256
	movq	16(%rbp), %rax
	movl	-4(%rbp), %edx
	movslq	%edx, %rdx
	addq	$256, %rdx
	movzwl	(%rax,%rdx,2), %eax
	movzwl	%ax, %edx
	movl	$9, %eax
	subl	-20(%rbp), %eax
	movl	%eax, %ecx
	sall	%cl, %edx
	movl	%edx, %eax
	movl	%eax, -24(%rbp)
	movl	$9, %eax
	subl	-20(%rbp), %eax
	movl	$1, %edx
	movl	%eax, %ecx
	sall	%cl, %edx
	movl	%edx, %eax
	movl	%eax, -28(%rbp)
	movl	$0, -8(%rbp)
.L258:
	movl	-8(%rbp), %eax
	cmpl	-28(%rbp), %eax
	jge	.L256
	movl	-24(%rbp), %edx
	movl	-8(%rbp), %eax
	addl	%edx, %eax
	movl	-4(%rbp), %edx
	movl	%edx, %ecx
	movq	16(%rbp), %rdx
	cltq
	movb	%cl, (%rdx,%rax)
	addl	$1, -8(%rbp)
	jmp	.L258
.L256:
	addl	$1, -4(%rbp)
	jmp	.L259
.L255:
	movl	$1, %eax
.L253:
	addq	$64, %rsp
	popq	%rbp
	ret
	.seh_endproc
	.def	_ZL19stbi__build_fast_acPsP13stbi__huffman;	.scl	3;	.type	32;	.endef
	.seh_proc	_ZL19stbi__build_fast_acPsP13stbi__huffman
_ZL19stbi__build_fast_acPsP13stbi__huffman:
	pushq	%rbp
	.seh_pushreg	%rbp
	movq	%rsp, %rbp
	.seh_setframe	%rbp, 0
	subq	$32, %rsp
	.seh_stackalloc	32
	.seh_endprologue
	movq	%rcx, 16(%rbp)
	movq	%rdx, 24(%rbp)
	movl	$0, -4(%rbp)
.L266:
	cmpl	$511, -4(%rbp)
	jg	.L267
	movq	24(%rbp), %rdx
	movl	-4(%rbp), %eax
	cltq
	movzbl	(%rdx,%rax), %eax
	movb	%al, -9(%rbp)
	movl	-4(%rbp), %eax
	cltq
	leaq	(%rax,%rax), %rdx
	movq	16(%rbp), %rax
	addq	%rdx, %rax
	movw	$0, (%rax)
	cmpb	$-1, -9(%rbp)
	je	.L262
	movzbl	-9(%rbp), %eax
	movq	24(%rbp), %rdx
	cltq
	movzbl	1024(%rdx,%rax), %eax
	movzbl	%al, %eax
	movl	%eax, -16(%rbp)
	movl	-16(%rbp), %eax
	sarl	$4, %eax
	andl	$15, %eax
	movl	%eax, -20(%rbp)
	movl	-16(%rbp), %eax
	andl	$15, %eax
	movl	%eax, -24(%rbp)
	movzbl	-9(%rbp), %eax
	movq	24(%rbp), %rdx
	cltq
	movzbl	1280(%rdx,%rax), %eax
	movzbl	%al, %eax
	movl	%eax, -28(%rbp)
	cmpl	$0, -24(%rbp)
	je	.L262
	movl	-28(%rbp), %edx
	movl	-24(%rbp), %eax
	addl	%edx, %eax
	cmpl	$9, %eax
	jg	.L262
	movl	-28(%rbp), %eax
	movl	-4(%rbp), %edx
	movl	%eax, %ecx
	sall	%cl, %edx
	movl	%edx, %eax
	andl	$511, %eax
	movl	%eax, %edx
	movl	$9, %eax
	subl	-24(%rbp), %eax
	movl	%eax, %ecx
	sarl	%cl, %edx
	movl	%edx, %eax
	movl	%eax, -8(%rbp)
	movl	-24(%rbp), %eax
	subl	$1, %eax
	movl	$1, %edx
	movl	%eax, %ecx
	sall	%cl, %edx
	movl	%edx, %eax
	movl	%eax, -32(%rbp)
	movl	-8(%rbp), %eax
	cmpl	-32(%rbp), %eax
	jge	.L264
	movl	-24(%rbp), %eax
	movl	$-1, %edx
	movl	%eax, %ecx
	sall	%cl, %edx
	movl	%edx, %eax
	addl	$1, %eax
	addl	%eax, -8(%rbp)
.L264:
	cmpl	$-128, -8(%rbp)
	jl	.L262
	cmpl	$127, -8(%rbp)
	jg	.L262
	movl	-8(%rbp), %eax
	sall	$8, %eax
	movl	%eax, %edx
	movl	-20(%rbp), %eax
	sall	$4, %eax
	addl	%eax, %edx
	movl	-28(%rbp), %eax
	movl	%eax, %ecx
	movl	-24(%rbp), %eax
	addl	%ecx, %eax
	addl	%eax, %edx
	movl	-4(%rbp), %eax
	cltq
	leaq	(%rax,%rax), %rcx
	movq	16(%rbp), %rax
	addq	%rcx, %rax
	movw	%dx, (%rax)
.L262:
	addl	$1, -4(%rbp)
	jmp	.L266
.L267:
	nop
	addq	$32, %rsp
	popq	%rbp
	ret
	.seh_endproc
	.def	_ZL24stbi__grow_buffer_unsafeP10stbi__jpeg;	.scl	3;	.type	32;	.endef
	.seh_proc	_ZL24stbi__grow_buffer_unsafeP10stbi__jpeg
_ZL24stbi__grow_buffer_unsafeP10stbi__jpeg:
	pushq	%rbp
	.seh_pushreg	%rbp
	movq	%rsp, %rbp
	.seh_setframe	%rbp, 0
	subq	$48, %rsp
	.seh_stackalloc	48
	.seh_endprologue
	movq	%rcx, 16(%rbp)
.L274:
	movq	16(%rbp), %rax
	movl	18220(%rax), %eax
	testl	%eax, %eax
	jne	.L269
	movq	16(%rbp), %rax
	movq	(%rax), %rax
	movq	%rax, %rcx
	call	_ZL10stbi__get8P13stbi__context
	movzbl	%al, %eax
	jmp	.L270
.L269:
	movl	$0, %eax
.L270:
	movl	%eax, -4(%rbp)
	cmpl	$255, -4(%rbp)
	jne	.L271
	movq	16(%rbp), %rax
	movq	(%rax), %rax
	movq	%rax, %rcx
	call	_ZL10stbi__get8P13stbi__context
	movzbl	%al, %eax
	movl	%eax, -8(%rbp)
	cmpl	$0, -8(%rbp)
	je	.L271
	movl	-8(%rbp), %eax
	movl	%eax, %edx
	movq	16(%rbp), %rax
	movb	%dl, 18216(%rax)
	movq	16(%rbp), %rax
	movl	$1, 18220(%rax)
	jmp	.L268
.L271:
	movq	16(%rbp), %rax
	movl	18208(%rax), %edx
	movq	16(%rbp), %rax
	movl	18212(%rax), %eax
	movl	$24, %ecx
	subl	%eax, %ecx
	movl	%ecx, %eax
	movl	-4(%rbp), %r8d
	movl	%eax, %ecx
	sall	%cl, %r8d
	movl	%r8d, %eax
	orl	%eax, %edx
	movq	16(%rbp), %rax
	movl	%edx, 18208(%rax)
	movq	16(%rbp), %rax
	movl	18212(%rax), %eax
	leal	8(%rax), %edx
	movq	16(%rbp), %rax
	movl	%edx, 18212(%rax)
	movq	16(%rbp), %rax
	movl	18212(%rax), %eax
	cmpl	$24, %eax
	jg	.L268
	jmp	.L274
.L268:
	addq	$48, %rsp
	popq	%rbp
	ret
	.seh_endproc
	.data
	.align 32
_ZL11stbi__bmask:
	.long	0
	.long	1
	.long	3
	.long	7
	.long	15
	.long	31
	.long	63
	.long	127
	.long	255
	.long	511
	.long	1023
	.long	2047
	.long	4095
	.long	8191
	.long	16383
	.long	32767
	.long	65535
	.section .rdata,"dr"
	.align 8
.LC12:
	.ascii "(((j->code_buffer) >> (32 - h->size[c])) & stbi__bmask[h->size[c]]) == h->code[c]\0"
	.text
	.def	_ZL22stbi__jpeg_huff_decodeP10stbi__jpegP13stbi__huffman;	.scl	3;	.type	32;	.endef
	.seh_proc	_ZL22stbi__jpeg_huff_decodeP10stbi__jpegP13stbi__huffman
_ZL22stbi__jpeg_huff_decodeP10stbi__jpegP13stbi__huffman:
	pushq	%rbp
	.seh_pushreg	%rbp
	movq	%rsp, %rbp
	.seh_setframe	%rbp, 0
	subq	$48, %rsp
	.seh_stackalloc	48
	.seh_endprologue
	movq	%rcx, 16(%rbp)
	movq	%rdx, 24(%rbp)
	movq	16(%rbp), %rax
	movl	18212(%rax), %eax
	cmpl	$15, %eax
	jg	.L276
	movq	16(%rbp), %rcx
	call	_ZL24stbi__grow_buffer_unsafeP10stbi__jpeg
.L276:
	movq	16(%rbp), %rax
	movl	18208(%rax), %eax
	shrl	$23, %eax
	movl	%eax, -8(%rbp)
	movq	24(%rbp), %rdx
	movl	-8(%rbp), %eax
	cltq
	movzbl	(%rdx,%rax), %eax
	movzbl	%al, %eax
	movl	%eax, -4(%rbp)
	cmpl	$254, -4(%rbp)
	jg	.L277
	movq	24(%rbp), %rdx
	movl	-4(%rbp), %eax
	cltq
	movzbl	1280(%rdx,%rax), %eax
	movzbl	%al, %eax
	movl	%eax, -12(%rbp)
	movq	16(%rbp), %rax
	movl	18212(%rax), %eax
	cmpl	%eax, -12(%rbp)
	jle	.L278
	movl	$-1, %eax
	jmp	.L279
.L278:
	movq	16(%rbp), %rax
	movl	18208(%rax), %edx
	movl	-12(%rbp), %eax
	movl	%eax, %ecx
	sall	%cl, %edx
	movq	16(%rbp), %rax
	movl	%edx, 18208(%rax)
	movq	16(%rbp), %rax
	movl	18212(%rax), %eax
	subl	-12(%rbp), %eax
	movq	16(%rbp), %rdx
	movl	%eax, 18212(%rdx)
	movq	24(%rbp), %rdx
	movl	-4(%rbp), %eax
	cltq
	movzbl	1024(%rdx,%rax), %eax
	movzbl	%al, %eax
	jmp	.L279
.L277:
	movq	16(%rbp), %rax
	movl	18208(%rax), %eax
	shrl	$16, %eax
	movl	%eax, -16(%rbp)
	movl	$10, -4(%rbp)
.L282:
	movq	24(%rbp), %rax
	movl	-4(%rbp), %edx
	movslq	%edx, %rdx
	addq	$384, %rdx
	movl	4(%rax,%rdx,4), %eax
	cmpl	%eax, -16(%rbp)
	jb	.L289
	addl	$1, -4(%rbp)
	jmp	.L282
.L289:
	nop
	cmpl	$17, -4(%rbp)
	jne	.L283
	movq	16(%rbp), %rax
	movl	18212(%rax), %eax
	leal	-16(%rax), %edx
	movq	16(%rbp), %rax
	movl	%edx, 18212(%rax)
	movl	$-1, %eax
	jmp	.L279
.L283:
	movq	16(%rbp), %rax
	movl	18212(%rax), %eax
	cmpl	%eax, -4(%rbp)
	jle	.L284
	movl	$-1, %eax
	jmp	.L279
.L284:
	movq	16(%rbp), %rax
	movl	18208(%rax), %edx
	movl	$32, %eax
	subl	-4(%rbp), %eax
	movl	%eax, %ecx
	shrl	%cl, %edx
	movl	%edx, %ecx
	movl	-4(%rbp), %eax
	cltq
	leaq	0(,%rax,4), %rdx
	leaq	_ZL11stbi__bmask(%rip), %rax
	movl	(%rdx,%rax), %eax
	andl	%eax, %ecx
	movq	24(%rbp), %rax
	movl	-4(%rbp), %edx
	movslq	%edx, %rdx
	addq	$400, %rdx
	movl	12(%rax,%rdx,4), %eax
	addl	%ecx, %eax
	movl	%eax, -8(%rbp)
	movq	16(%rbp), %rax
	movl	18208(%rax), %r8d
	movq	24(%rbp), %rdx
	movl	-8(%rbp), %eax
	cltq
	movzbl	1280(%rdx,%rax), %eax
	movzbl	%al, %eax
	movl	$32, %edx
	subl	%eax, %edx
	movl	%edx, %eax
	movl	%eax, %ecx
	shrl	%cl, %r8d
	movl	%r8d, %ecx
	movq	24(%rbp), %rdx
	movl	-8(%rbp), %eax
	cltq
	movzbl	1280(%rdx,%rax), %eax
	movzbl	%al, %eax
	cltq
	leaq	0(,%rax,4), %rdx
	leaq	_ZL11stbi__bmask(%rip), %rax
	movl	(%rdx,%rax), %eax
	andl	%eax, %ecx
	movq	24(%rbp), %rax
	movl	-8(%rbp), %edx
	movslq	%edx, %rdx
	addq	$256, %rdx
	movzwl	(%rax,%rdx,2), %eax
	movzwl	%ax, %eax
	cmpl	%eax, %ecx
	je	.L287
	movl	$1628, %r8d
	leaq	.LC4(%rip), %rdx
	leaq	.LC12(%rip), %rcx
	call	_assert
.L287:
	movq	16(%rbp), %rax
	movl	18212(%rax), %eax
	subl	-4(%rbp), %eax
	movq	16(%rbp), %rdx
	movl	%eax, 18212(%rdx)
	movq	16(%rbp), %rax
	movl	18208(%rax), %edx
	movl	-4(%rbp), %eax
	movl	%eax, %ecx
	sall	%cl, %edx
	movq	16(%rbp), %rax
	movl	%edx, 18208(%rax)
	movq	24(%rbp), %rdx
	movl	-8(%rbp), %eax
	cltq
	movzbl	1024(%rdx,%rax), %eax
	movzbl	%al, %eax
.L279:
	addq	$48, %rsp
	popq	%rbp
	ret
	.seh_endproc
	.section .rdata,"dr"
	.align 32
_ZL11stbi__jbias:
	.long	0
	.long	-1
	.long	-3
	.long	-7
	.long	-15
	.long	-31
	.long	-63
	.long	-127
	.long	-255
	.long	-511
	.long	-1023
	.long	-2047
	.long	-4095
	.long	-8191
	.long	-16383
	.long	-32767
	.align 8
.LC13:
	.ascii "n >= 0 && n < (int) (sizeof(stbi__bmask)/sizeof(*stbi__bmask))\0"
	.text
	.def	_ZL20stbi__extend_receiveP10stbi__jpegi;	.scl	3;	.type	32;	.endef
	.seh_proc	_ZL20stbi__extend_receiveP10stbi__jpegi
_ZL20stbi__extend_receiveP10stbi__jpegi:
	pushq	%rbp
	.seh_pushreg	%rbp
	movq	%rsp, %rbp
	.seh_setframe	%rbp, 0
	subq	$48, %rsp
	.seh_stackalloc	48
	.seh_endprologue
	movq	%rcx, 16(%rbp)
	movl	%edx, 24(%rbp)
	movq	16(%rbp), %rax
	movl	18212(%rax), %edx
	movl	24(%rbp), %eax
	cmpl	%eax, %edx
	jge	.L291
	movq	16(%rbp), %rcx
	call	_ZL24stbi__grow_buffer_unsafeP10stbi__jpeg
.L291:
	movq	16(%rbp), %rax
	movl	18208(%rax), %eax
	sarl	$31, %eax
	movl	%eax, -4(%rbp)
	movq	16(%rbp), %rax
	movl	18208(%rax), %edx
	movl	24(%rbp), %eax
	movl	%eax, %ecx
	roll	%cl, %edx
	movl	%edx, %eax
	movl	%eax, -8(%rbp)
	movl	24(%rbp), %eax
	testl	%eax, %eax
	js	.L292
	movl	24(%rbp), %eax
	cmpl	$16, %eax
	jle	.L297
.L292:
	movl	$1649, %r8d
	leaq	.LC4(%rip), %rdx
	leaq	.LC13(%rip), %rcx
	call	_assert
	jmp	.L295
.L297:
	nop
.L295:
	movl	24(%rbp), %eax
	cltq
	leaq	0(,%rax,4), %rdx
	leaq	_ZL11stbi__bmask(%rip), %rax
	movl	(%rdx,%rax), %eax
	notl	%eax
	andl	-8(%rbp), %eax
	movq	16(%rbp), %rdx
	movl	%eax, 18208(%rdx)
	movl	24(%rbp), %eax
	cltq
	leaq	0(,%rax,4), %rdx
	leaq	_ZL11stbi__bmask(%rip), %rax
	movl	(%rdx,%rax), %eax
	andl	%eax, -8(%rbp)
	movq	16(%rbp), %rax
	movl	18212(%rax), %edx
	movl	24(%rbp), %eax
	subl	%eax, %edx
	movq	16(%rbp), %rax
	movl	%edx, 18212(%rax)
	movl	24(%rbp), %eax
	cltq
	leaq	0(,%rax,4), %rdx
	leaq	_ZL11stbi__jbias(%rip), %rax
	movl	(%rdx,%rax), %edx
	movl	-4(%rbp), %eax
	notl	%eax
	andl	%edx, %eax
	movl	%eax, %edx
	movl	-8(%rbp), %eax
	addl	%edx, %eax
	addq	$48, %rsp
	popq	%rbp
	ret
	.seh_endproc
	.def	_ZL19stbi__jpeg_get_bitsP10stbi__jpegi;	.scl	3;	.type	32;	.endef
	.seh_proc	_ZL19stbi__jpeg_get_bitsP10stbi__jpegi
_ZL19stbi__jpeg_get_bitsP10stbi__jpegi:
	pushq	%rbp
	.seh_pushreg	%rbp
	movq	%rsp, %rbp
	.seh_setframe	%rbp, 0
	subq	$48, %rsp
	.seh_stackalloc	48
	.seh_endprologue
	movq	%rcx, 16(%rbp)
	movl	%edx, 24(%rbp)
	movq	16(%rbp), %rax
	movl	18212(%rax), %edx
	movl	24(%rbp), %eax
	cmpl	%eax, %edx
	jge	.L299
	movq	16(%rbp), %rcx
	call	_ZL24stbi__grow_buffer_unsafeP10stbi__jpeg
.L299:
	movq	16(%rbp), %rax
	movl	18208(%rax), %edx
	movl	24(%rbp), %eax
	movl	%eax, %ecx
	roll	%cl, %edx
	movl	%edx, %eax
	movl	%eax, -4(%rbp)
	movl	24(%rbp), %eax
	cltq
	leaq	0(,%rax,4), %rdx
	leaq	_ZL11stbi__bmask(%rip), %rax
	movl	(%rdx,%rax), %eax
	notl	%eax
	andl	-4(%rbp), %eax
	movq	16(%rbp), %rdx
	movl	%eax, 18208(%rdx)
	movl	24(%rbp), %eax
	cltq
	leaq	0(,%rax,4), %rdx
	leaq	_ZL11stbi__bmask(%rip), %rax
	movl	(%rdx,%rax), %eax
	andl	%eax, -4(%rbp)
	movq	16(%rbp), %rax
	movl	18212(%rax), %edx
	movl	24(%rbp), %eax
	subl	%eax, %edx
	movq	16(%rbp), %rax
	movl	%edx, 18212(%rax)
	movl	-4(%rbp), %eax
	addq	$48, %rsp
	popq	%rbp
	ret
	.seh_endproc
	.def	_ZL18stbi__jpeg_get_bitP10stbi__jpeg;	.scl	3;	.type	32;	.endef
	.seh_proc	_ZL18stbi__jpeg_get_bitP10stbi__jpeg
_ZL18stbi__jpeg_get_bitP10stbi__jpeg:
	pushq	%rbp
	.seh_pushreg	%rbp
	movq	%rsp, %rbp
	.seh_setframe	%rbp, 0
	subq	$48, %rsp
	.seh_stackalloc	48
	.seh_endprologue
	movq	%rcx, 16(%rbp)
	movq	16(%rbp), %rax
	movl	18212(%rax), %eax
	testl	%eax, %eax
	jg	.L302
	movq	16(%rbp), %rcx
	call	_ZL24stbi__grow_buffer_unsafeP10stbi__jpeg
.L302:
	movq	16(%rbp), %rax
	movl	18208(%rax), %eax
	movl	%eax, -4(%rbp)
	movq	16(%rbp), %rax
	movl	18208(%rax), %eax
	leal	(%rax,%rax), %edx
	movq	16(%rbp), %rax
	movl	%edx, 18208(%rax)
	movq	16(%rbp), %rax
	movl	18212(%rax), %eax
	leal	-1(%rax), %edx
	movq	16(%rbp), %rax
	movl	%edx, 18212(%rax)
	movl	-4(%rbp), %eax
	andl	$-2147483648, %eax
	addq	$48, %rsp
	popq	%rbp
	ret
	.seh_endproc
	.data
	.align 32
_ZL19stbi__jpeg_dezigzag:
	.byte	0
	.byte	1
	.byte	8
	.byte	16
	.byte	9
	.byte	2
	.byte	3
	.byte	10
	.byte	17
	.byte	24
	.byte	32
	.byte	25
	.byte	18
	.byte	11
	.byte	4
	.byte	5
	.byte	12
	.byte	19
	.byte	26
	.byte	33
	.byte	40
	.byte	48
	.byte	41
	.byte	34
	.byte	27
	.byte	20
	.byte	13
	.byte	6
	.byte	7
	.byte	14
	.byte	21
	.byte	28
	.byte	35
	.byte	42
	.byte	49
	.byte	56
	.byte	57
	.byte	50
	.byte	43
	.byte	36
	.byte	29
	.byte	22
	.byte	15
	.byte	23
	.byte	30
	.byte	37
	.byte	44
	.byte	51
	.byte	58
	.byte	59
	.byte	52
	.byte	45
	.byte	38
	.byte	31
	.byte	39
	.byte	46
	.byte	53
	.byte	60
	.byte	61
	.byte	54
	.byte	47
	.byte	55
	.byte	62
	.byte	63
	.byte	63
	.byte	63
	.byte	63
	.byte	63
	.byte	63
	.byte	63
	.byte	63
	.byte	63
	.byte	63
	.byte	63
	.byte	63
	.byte	63
	.byte	63
	.byte	63
	.byte	63
	.section .rdata,"dr"
.LC14:
	.ascii "bad huffman code\0"
	.text
	.def	_ZL23stbi__jpeg_decode_blockP10stbi__jpegPsP13stbi__huffmanS3_S1_iPh;	.scl	3;	.type	32;	.endef
	.seh_proc	_ZL23stbi__jpeg_decode_blockP10stbi__jpegPsP13stbi__huffmanS3_S1_iPh
_ZL23stbi__jpeg_decode_blockP10stbi__jpegPsP13stbi__huffmanS3_S1_iPh:
	pushq	%rbp
	.seh_pushreg	%rbp
	movq	%rsp, %rbp
	.seh_setframe	%rbp, 0
	subq	$80, %rsp
	.seh_stackalloc	80
	.seh_endprologue
	movq	%rcx, 16(%rbp)
	movq	%rdx, 24(%rbp)
	movq	%r8, 32(%rbp)
	movq	%r9, 40(%rbp)
	movq	16(%rbp), %rax
	movl	18212(%rax), %eax
	cmpl	$15, %eax
	jg	.L305
	movq	16(%rbp), %rcx
	call	_ZL24stbi__grow_buffer_unsafeP10stbi__jpeg
.L305:
	movq	32(%rbp), %rax
	movq	%rax, %rdx
	movq	16(%rbp), %rcx
	call	_ZL22stbi__jpeg_huff_decodeP10stbi__jpegP13stbi__huffman
	movl	%eax, -8(%rbp)
	cmpl	$0, -8(%rbp)
	jns	.L306
	leaq	.LC14(%rip), %rcx
	call	_ZL9stbi__errPKc
	jmp	.L307
.L306:
	movq	24(%rbp), %rax
	movl	$128, %r8d
	movl	$0, %edx
	movq	%rax, %rcx
	call	memset
	cmpl	$0, -8(%rbp)
	je	.L308
	movl	-8(%rbp), %eax
	movl	%eax, %edx
	movq	16(%rbp), %rcx
	call	_ZL20stbi__extend_receiveP10stbi__jpegi
	jmp	.L309
.L308:
	movl	$0, %eax
.L309:
	movl	%eax, -12(%rbp)
	movq	16(%rbp), %rcx
	movl	56(%rbp), %eax
	movslq	%eax, %rdx
	movq	%rdx, %rax
	addq	%rax, %rax
	addq	%rdx, %rax
	salq	$5, %rax
	addq	%rcx, %rax
	addq	$17848, %rax
	movl	(%rax), %edx
	movl	-12(%rbp), %eax
	addl	%edx, %eax
	movl	%eax, -16(%rbp)
	movq	16(%rbp), %rcx
	movl	56(%rbp), %eax
	movslq	%eax, %rdx
	movq	%rdx, %rax
	addq	%rax, %rax
	addq	%rdx, %rax
	salq	$5, %rax
	addq	%rcx, %rax
	addq	$17848, %rax
	movl	-16(%rbp), %edx
	movl	%edx, (%rax)
	movq	64(%rbp), %rax
	movzbl	(%rax), %eax
	movzbl	%al, %eax
	movl	-16(%rbp), %edx
	imull	%edx, %eax
	movl	%eax, %edx
	movq	24(%rbp), %rax
	movw	%dx, (%rax)
	movl	$1, -4(%rbp)
.L317:
	movq	16(%rbp), %rax
	movl	18212(%rax), %eax
	cmpl	$15, %eax
	jg	.L310
	movq	16(%rbp), %rcx
	call	_ZL24stbi__grow_buffer_unsafeP10stbi__jpeg
.L310:
	movq	16(%rbp), %rax
	movl	18208(%rax), %eax
	shrl	$23, %eax
	movl	%eax, -20(%rbp)
	movl	-20(%rbp), %eax
	cltq
	leaq	(%rax,%rax), %rdx
	movq	48(%rbp), %rax
	addq	%rdx, %rax
	movzwl	(%rax), %eax
	cwtl
	movl	%eax, -24(%rbp)
	cmpl	$0, -24(%rbp)
	je	.L311
	movl	-24(%rbp), %eax
	sarl	$4, %eax
	andl	$15, %eax
	addl	%eax, -4(%rbp)
	movl	-24(%rbp), %eax
	andl	$15, %eax
	movl	%eax, -28(%rbp)
	movq	16(%rbp), %rax
	movl	18208(%rax), %edx
	movl	-28(%rbp), %eax
	movl	%eax, %ecx
	sall	%cl, %edx
	movq	16(%rbp), %rax
	movl	%edx, 18208(%rax)
	movq	16(%rbp), %rax
	movl	18212(%rax), %eax
	subl	-28(%rbp), %eax
	movq	16(%rbp), %rdx
	movl	%eax, 18212(%rdx)
	movl	-4(%rbp), %eax
	leal	1(%rax), %edx
	movl	%edx, -4(%rbp)
	cltq
	leaq	_ZL19stbi__jpeg_dezigzag(%rip), %rdx
	movzbl	(%rax,%rdx), %eax
	movzbl	%al, %eax
	movl	%eax, -32(%rbp)
	movl	-24(%rbp), %eax
	sarl	$8, %eax
	movl	%eax, %ecx
	movl	-32(%rbp), %eax
	movq	64(%rbp), %rdx
	addq	%rdx, %rax
	movzbl	(%rax), %eax
	movzbl	%al, %eax
	imull	%eax, %ecx
	movl	%ecx, %edx
	movl	-32(%rbp), %eax
	leaq	(%rax,%rax), %rcx
	movq	24(%rbp), %rax
	addq	%rcx, %rax
	movw	%dx, (%rax)
	jmp	.L312
.L311:
	movq	40(%rbp), %rax
	movq	%rax, %rdx
	movq	16(%rbp), %rcx
	call	_ZL22stbi__jpeg_huff_decodeP10stbi__jpegP13stbi__huffman
	movl	%eax, -36(%rbp)
	cmpl	$0, -36(%rbp)
	jns	.L313
	leaq	.LC14(%rip), %rcx
	call	_ZL9stbi__errPKc
	jmp	.L307
.L313:
	movl	-36(%rbp), %eax
	andl	$15, %eax
	movl	%eax, -28(%rbp)
	movl	-36(%rbp), %eax
	sarl	$4, %eax
	movl	%eax, -24(%rbp)
	cmpl	$0, -28(%rbp)
	jne	.L314
	cmpl	$240, -36(%rbp)
	jne	.L318
	addl	$16, -4(%rbp)
	jmp	.L312
.L314:
	movl	-24(%rbp), %eax
	addl	%eax, -4(%rbp)
	movl	-4(%rbp), %eax
	leal	1(%rax), %edx
	movl	%edx, -4(%rbp)
	cltq
	leaq	_ZL19stbi__jpeg_dezigzag(%rip), %rdx
	movzbl	(%rax,%rdx), %eax
	movzbl	%al, %eax
	movl	%eax, -32(%rbp)
	movl	-28(%rbp), %eax
	movl	%eax, %edx
	movq	16(%rbp), %rcx
	call	_ZL20stbi__extend_receiveP10stbi__jpegi
	movl	%eax, %ecx
	movl	-32(%rbp), %eax
	movq	64(%rbp), %rdx
	addq	%rdx, %rax
	movzbl	(%rax), %eax
	movzbl	%al, %eax
	imull	%eax, %ecx
	movl	%ecx, %edx
	movl	-32(%rbp), %eax
	leaq	(%rax,%rax), %rcx
	movq	24(%rbp), %rax
	addq	%rcx, %rax
	movw	%dx, (%rax)
.L312:
	cmpl	$63, -4(%rbp)
	jg	.L316
	jmp	.L317
.L318:
	nop
.L316:
	movl	$1, %eax
.L307:
	addq	$80, %rsp
	popq	%rbp
	ret
	.seh_endproc
	.section .rdata,"dr"
.LC15:
	.ascii "can't merge dc and ac\0"
	.text
	.def	_ZL31stbi__jpeg_decode_block_prog_dcP10stbi__jpegPsP13stbi__huffmani;	.scl	3;	.type	32;	.endef
	.seh_proc	_ZL31stbi__jpeg_decode_block_prog_dcP10stbi__jpegPsP13stbi__huffmani
_ZL31stbi__jpeg_decode_block_prog_dcP10stbi__jpegPsP13stbi__huffmani:
	pushq	%rbp
	.seh_pushreg	%rbp
	movq	%rsp, %rbp
	.seh_setframe	%rbp, 0
	subq	$48, %rsp
	.seh_stackalloc	48
	.seh_endprologue
	movq	%rcx, 16(%rbp)
	movq	%rdx, 24(%rbp)
	movq	%r8, 32(%rbp)
	movl	%r9d, 40(%rbp)
	movq	16(%rbp), %rax
	movl	18232(%rax), %eax
	testl	%eax, %eax
	je	.L320
	leaq	.LC15(%rip), %rcx
	call	_ZL9stbi__errPKc
	jmp	.L321
.L320:
	movq	16(%rbp), %rax
	movl	18212(%rax), %eax
	cmpl	$15, %eax
	jg	.L322
	movq	16(%rbp), %rcx
	call	_ZL24stbi__grow_buffer_unsafeP10stbi__jpeg
.L322:
	movq	16(%rbp), %rax
	movl	18236(%rax), %eax
	testl	%eax, %eax
	jne	.L323
	movq	24(%rbp), %rax
	movl	$128, %r8d
	movl	$0, %edx
	movq	%rax, %rcx
	call	memset
	movq	32(%rbp), %rax
	movq	%rax, %rdx
	movq	16(%rbp), %rcx
	call	_ZL22stbi__jpeg_huff_decodeP10stbi__jpegP13stbi__huffman
	movl	%eax, -4(%rbp)
	cmpl	$0, -4(%rbp)
	je	.L324
	movl	-4(%rbp), %eax
	movl	%eax, %edx
	movq	16(%rbp), %rcx
	call	_ZL20stbi__extend_receiveP10stbi__jpegi
	jmp	.L325
.L324:
	movl	$0, %eax
.L325:
	movl	%eax, -8(%rbp)
	movq	16(%rbp), %rcx
	movl	40(%rbp), %eax
	movslq	%eax, %rdx
	movq	%rdx, %rax
	addq	%rax, %rax
	addq	%rdx, %rax
	salq	$5, %rax
	addq	%rcx, %rax
	addq	$17848, %rax
	movl	(%rax), %edx
	movl	-8(%rbp), %eax
	addl	%edx, %eax
	movl	%eax, -12(%rbp)
	movq	16(%rbp), %rcx
	movl	40(%rbp), %eax
	movslq	%eax, %rdx
	movq	%rdx, %rax
	addq	%rax, %rax
	addq	%rdx, %rax
	salq	$5, %rax
	addq	%rcx, %rax
	addq	$17848, %rax
	movl	-12(%rbp), %edx
	movl	%edx, (%rax)
	movq	16(%rbp), %rax
	movl	18240(%rax), %eax
	movl	-12(%rbp), %edx
	movl	%eax, %ecx
	sall	%cl, %edx
	movl	%edx, %eax
	movl	%eax, %edx
	movq	24(%rbp), %rax
	movw	%dx, (%rax)
	jmp	.L326
.L323:
	movq	16(%rbp), %rcx
	call	_ZL18stbi__jpeg_get_bitP10stbi__jpeg
	testl	%eax, %eax
	setne	%al
	testb	%al, %al
	je	.L326
	movq	24(%rbp), %rax
	movzwl	(%rax), %eax
	movl	%eax, %edx
	movq	16(%rbp), %rax
	movl	18240(%rax), %eax
	movl	$1, %r8d
	movl	%eax, %ecx
	sall	%cl, %r8d
	movl	%r8d, %eax
	addl	%edx, %eax
	movl	%eax, %edx
	movq	24(%rbp), %rax
	movw	%dx, (%rax)
.L326:
	movl	$1, %eax
.L321:
	addq	$48, %rsp
	popq	%rbp
	ret
	.seh_endproc
	.def	_ZL31stbi__jpeg_decode_block_prog_acP10stbi__jpegPsP13stbi__huffmanS1_;	.scl	3;	.type	32;	.endef
	.seh_proc	_ZL31stbi__jpeg_decode_block_prog_acP10stbi__jpegPsP13stbi__huffmanS1_
_ZL31stbi__jpeg_decode_block_prog_acP10stbi__jpegPsP13stbi__huffmanS1_:
	pushq	%rbp
	.seh_pushreg	%rbp
	movq	%rsp, %rbp
	.seh_setframe	%rbp, 0
	subq	$96, %rsp
	.seh_stackalloc	96
	.seh_endprologue
	movq	%rcx, 16(%rbp)
	movq	%rdx, 24(%rbp)
	movq	%r8, 32(%rbp)
	movq	%r9, 40(%rbp)
	movq	16(%rbp), %rax
	movl	18228(%rax), %eax
	testl	%eax, %eax
	jne	.L328
	leaq	.LC15(%rip), %rcx
	call	_ZL9stbi__errPKc
	jmp	.L329
.L328:
	movq	16(%rbp), %rax
	movl	18236(%rax), %eax
	testl	%eax, %eax
	jne	.L330
	movq	16(%rbp), %rax
	movl	18240(%rax), %eax
	movl	%eax, -16(%rbp)
	movq	16(%rbp), %rax
	movl	18244(%rax), %eax
	testl	%eax, %eax
	je	.L331
	movq	16(%rbp), %rax
	movl	18244(%rax), %eax
	leal	-1(%rax), %edx
	movq	16(%rbp), %rax
	movl	%edx, 18244(%rax)
	movl	$1, %eax
	jmp	.L329
.L331:
	movq	16(%rbp), %rax
	movl	18228(%rax), %eax
	movl	%eax, -4(%rbp)
.L340:
	movq	16(%rbp), %rax
	movl	18212(%rax), %eax
	cmpl	$15, %eax
	jg	.L332
	movq	16(%rbp), %rcx
	call	_ZL24stbi__grow_buffer_unsafeP10stbi__jpeg
.L332:
	movq	16(%rbp), %rax
	movl	18208(%rax), %eax
	shrl	$23, %eax
	movl	%eax, -20(%rbp)
	movl	-20(%rbp), %eax
	cltq
	leaq	(%rax,%rax), %rdx
	movq	40(%rbp), %rax
	addq	%rdx, %rax
	movzwl	(%rax), %eax
	cwtl
	movl	%eax, -24(%rbp)
	cmpl	$0, -24(%rbp)
	je	.L333
	movl	-24(%rbp), %eax
	sarl	$4, %eax
	andl	$15, %eax
	addl	%eax, -4(%rbp)
	movl	-24(%rbp), %eax
	andl	$15, %eax
	movl	%eax, -28(%rbp)
	movq	16(%rbp), %rax
	movl	18208(%rax), %edx
	movl	-28(%rbp), %eax
	movl	%eax, %ecx
	sall	%cl, %edx
	movq	16(%rbp), %rax
	movl	%edx, 18208(%rax)
	movq	16(%rbp), %rax
	movl	18212(%rax), %eax
	subl	-28(%rbp), %eax
	movq	16(%rbp), %rdx
	movl	%eax, 18212(%rdx)
	movl	-4(%rbp), %eax
	leal	1(%rax), %edx
	movl	%edx, -4(%rbp)
	cltq
	leaq	_ZL19stbi__jpeg_dezigzag(%rip), %rdx
	movzbl	(%rax,%rdx), %eax
	movzbl	%al, %eax
	movl	%eax, -32(%rbp)
	movl	-24(%rbp), %eax
	sarl	$8, %eax
	movl	%eax, %edx
	movl	-16(%rbp), %eax
	movl	%eax, %ecx
	sall	%cl, %edx
	movl	-32(%rbp), %eax
	leaq	(%rax,%rax), %rcx
	movq	24(%rbp), %rax
	addq	%rcx, %rax
	movw	%dx, (%rax)
	jmp	.L334
.L333:
	movq	32(%rbp), %rax
	movq	%rax, %rdx
	movq	16(%rbp), %rcx
	call	_ZL22stbi__jpeg_huff_decodeP10stbi__jpegP13stbi__huffman
	movl	%eax, -36(%rbp)
	cmpl	$0, -36(%rbp)
	jns	.L335
	leaq	.LC14(%rip), %rcx
	call	_ZL9stbi__errPKc
	jmp	.L329
.L335:
	movl	-36(%rbp), %eax
	andl	$15, %eax
	movl	%eax, -28(%rbp)
	movl	-36(%rbp), %eax
	sarl	$4, %eax
	movl	%eax, -24(%rbp)
	cmpl	$0, -28(%rbp)
	jne	.L336
	cmpl	$14, -24(%rbp)
	jg	.L337
	movl	-24(%rbp), %eax
	movl	$1, %edx
	movl	%eax, %ecx
	sall	%cl, %edx
	movq	16(%rbp), %rax
	movl	%edx, 18244(%rax)
	cmpl	$0, -24(%rbp)
	je	.L338
	movl	-24(%rbp), %eax
	movl	%eax, %edx
	movq	16(%rbp), %rcx
	call	_ZL19stbi__jpeg_get_bitsP10stbi__jpegi
	movl	%eax, %edx
	movq	16(%rbp), %rax
	movl	18244(%rax), %eax
	addl	%eax, %edx
	movq	16(%rbp), %rax
	movl	%edx, 18244(%rax)
.L338:
	movq	16(%rbp), %rax
	movl	18244(%rax), %eax
	leal	-1(%rax), %edx
	movq	16(%rbp), %rax
	movl	%edx, 18244(%rax)
	jmp	.L341
.L337:
	addl	$16, -4(%rbp)
	jmp	.L334
.L336:
	movl	-24(%rbp), %eax
	addl	%eax, -4(%rbp)
	movl	-4(%rbp), %eax
	leal	1(%rax), %edx
	movl	%edx, -4(%rbp)
	cltq
	leaq	_ZL19stbi__jpeg_dezigzag(%rip), %rdx
	movzbl	(%rax,%rdx), %eax
	movzbl	%al, %eax
	movl	%eax, -32(%rbp)
	movl	-28(%rbp), %eax
	movl	%eax, %edx
	movq	16(%rbp), %rcx
	call	_ZL20stbi__extend_receiveP10stbi__jpegi
	movl	%eax, %edx
	movl	-16(%rbp), %eax
	movl	%eax, %ecx
	sall	%cl, %edx
	movl	-32(%rbp), %eax
	leaq	(%rax,%rax), %rcx
	movq	24(%rbp), %rax
	addq	%rcx, %rax
	movw	%dx, (%rax)
.L334:
	movq	16(%rbp), %rax
	movl	18232(%rax), %eax
	cmpl	%eax, -4(%rbp)
	jg	.L341
	jmp	.L340
.L330:
	movq	16(%rbp), %rax
	movl	18240(%rax), %eax
	movl	$1, %edx
	movl	%eax, %ecx
	sall	%cl, %edx
	movl	%edx, %eax
	movw	%ax, -38(%rbp)
	movq	16(%rbp), %rax
	movl	18244(%rax), %eax
	testl	%eax, %eax
	je	.L342
	movq	16(%rbp), %rax
	movl	18244(%rax), %eax
	leal	-1(%rax), %edx
	movq	16(%rbp), %rax
	movl	%edx, 18244(%rax)
	movq	16(%rbp), %rax
	movl	18228(%rax), %eax
	movl	%eax, -4(%rbp)
.L347:
	movq	16(%rbp), %rax
	movl	18232(%rax), %eax
	cmpl	%eax, -4(%rbp)
	jg	.L341
	movl	-4(%rbp), %eax
	cltq
	leaq	_ZL19stbi__jpeg_dezigzag(%rip), %rdx
	movzbl	(%rax,%rdx), %eax
	movzbl	%al, %eax
	leaq	(%rax,%rax), %rdx
	movq	24(%rbp), %rax
	addq	%rdx, %rax
	movq	%rax, -48(%rbp)
	movq	-48(%rbp), %rax
	movzwl	(%rax), %eax
	testw	%ax, %ax
	je	.L344
	movq	16(%rbp), %rcx
	call	_ZL18stbi__jpeg_get_bitP10stbi__jpeg
	testl	%eax, %eax
	setne	%al
	testb	%al, %al
	je	.L344
	movq	-48(%rbp), %rax
	movzwl	(%rax), %eax
	andw	-38(%rbp), %ax
	testw	%ax, %ax
	jne	.L344
	movq	-48(%rbp), %rax
	movzwl	(%rax), %eax
	testw	%ax, %ax
	jle	.L345
	movq	-48(%rbp), %rax
	movzwl	(%rax), %eax
	movl	%eax, %edx
	movzwl	-38(%rbp), %eax
	addl	%edx, %eax
	movl	%eax, %edx
	movq	-48(%rbp), %rax
	movw	%dx, (%rax)
	jmp	.L344
.L345:
	movq	-48(%rbp), %rax
	movzwl	(%rax), %eax
	movl	%eax, %edx
	movzwl	-38(%rbp), %eax
	subl	%eax, %edx
	movl	%edx, %eax
	movl	%eax, %edx
	movq	-48(%rbp), %rax
	movw	%dx, (%rax)
.L344:
	addl	$1, -4(%rbp)
	jmp	.L347
.L342:
	movq	16(%rbp), %rax
	movl	18228(%rax), %eax
	movl	%eax, -4(%rbp)
.L361:
	movq	32(%rbp), %rax
	movq	%rax, %rdx
	movq	16(%rbp), %rcx
	call	_ZL22stbi__jpeg_huff_decodeP10stbi__jpegP13stbi__huffman
	movl	%eax, -52(%rbp)
	cmpl	$0, -52(%rbp)
	jns	.L348
	leaq	.LC14(%rip), %rcx
	call	_ZL9stbi__errPKc
	jmp	.L329
.L348:
	movl	-52(%rbp), %eax
	andl	$15, %eax
	movl	%eax, -12(%rbp)
	movl	-52(%rbp), %eax
	sarl	$4, %eax
	movl	%eax, -8(%rbp)
	cmpl	$0, -12(%rbp)
	jne	.L349
	cmpl	$14, -8(%rbp)
	jg	.L360
	movl	-8(%rbp), %eax
	movl	$1, %edx
	movl	%eax, %ecx
	sall	%cl, %edx
	movl	%edx, %eax
	leal	-1(%rax), %edx
	movq	16(%rbp), %rax
	movl	%edx, 18244(%rax)
	cmpl	$0, -8(%rbp)
	je	.L351
	movl	-8(%rbp), %eax
	movl	%eax, %edx
	movq	16(%rbp), %rcx
	call	_ZL19stbi__jpeg_get_bitsP10stbi__jpegi
	movl	%eax, %edx
	movq	16(%rbp), %rax
	movl	18244(%rax), %eax
	addl	%eax, %edx
	movq	16(%rbp), %rax
	movl	%edx, 18244(%rax)
.L351:
	movl	$64, -8(%rbp)
	jmp	.L360
.L349:
	cmpl	$1, -12(%rbp)
	je	.L352
	leaq	.LC14(%rip), %rcx
	call	_ZL9stbi__errPKc
	jmp	.L329
.L352:
	movq	16(%rbp), %rcx
	call	_ZL18stbi__jpeg_get_bitP10stbi__jpeg
	testl	%eax, %eax
	setne	%al
	testb	%al, %al
	je	.L353
	movswl	-38(%rbp), %eax
	movl	%eax, -12(%rbp)
	jmp	.L360
.L353:
	movswl	-38(%rbp), %eax
	negl	%eax
	movl	%eax, -12(%rbp)
.L360:
	movq	16(%rbp), %rax
	movl	18232(%rax), %eax
	cmpl	%eax, -4(%rbp)
	jg	.L354
	movl	-4(%rbp), %eax
	leal	1(%rax), %edx
	movl	%edx, -4(%rbp)
	cltq
	leaq	_ZL19stbi__jpeg_dezigzag(%rip), %rdx
	movzbl	(%rax,%rdx), %eax
	movzbl	%al, %eax
	leaq	(%rax,%rax), %rdx
	movq	24(%rbp), %rax
	addq	%rdx, %rax
	movq	%rax, -64(%rbp)
	movq	-64(%rbp), %rax
	movzwl	(%rax), %eax
	testw	%ax, %ax
	je	.L355
	movq	16(%rbp), %rcx
	call	_ZL18stbi__jpeg_get_bitP10stbi__jpeg
	testl	%eax, %eax
	setne	%al
	testb	%al, %al
	je	.L360
	movq	-64(%rbp), %rax
	movzwl	(%rax), %eax
	andw	-38(%rbp), %ax
	testw	%ax, %ax
	jne	.L360
	movq	-64(%rbp), %rax
	movzwl	(%rax), %eax
	testw	%ax, %ax
	jle	.L357
	movq	-64(%rbp), %rax
	movzwl	(%rax), %eax
	movl	%eax, %edx
	movzwl	-38(%rbp), %eax
	addl	%edx, %eax
	movl	%eax, %edx
	movq	-64(%rbp), %rax
	movw	%dx, (%rax)
	jmp	.L360
.L357:
	movq	-64(%rbp), %rax
	movzwl	(%rax), %eax
	movl	%eax, %edx
	movzwl	-38(%rbp), %eax
	subl	%eax, %edx
	movl	%edx, %eax
	movl	%eax, %edx
	movq	-64(%rbp), %rax
	movw	%dx, (%rax)
	jmp	.L360
.L355:
	cmpl	$0, -8(%rbp)
	jne	.L359
	movl	-12(%rbp), %eax
	movl	%eax, %edx
	movq	-64(%rbp), %rax
	movw	%dx, (%rax)
	jmp	.L354
.L359:
	subl	$1, -8(%rbp)
	jmp	.L360
.L354:
	movq	16(%rbp), %rax
	movl	18232(%rax), %eax
	cmpl	%eax, -4(%rbp)
	jg	.L341
	jmp	.L361
.L341:
	movl	$1, %eax
.L329:
	addq	$96, %rsp
	popq	%rbp
	ret
	.seh_endproc
	.def	_ZL11stbi__clampi;	.scl	3;	.type	32;	.endef
	.seh_proc	_ZL11stbi__clampi
_ZL11stbi__clampi:
	pushq	%rbp
	.seh_pushreg	%rbp
	movq	%rsp, %rbp
	.seh_setframe	%rbp, 0
	.seh_endprologue
	movl	%ecx, 16(%rbp)
	movl	16(%rbp), %eax
	cmpl	$255, %eax
	jbe	.L363
	cmpl	$0, 16(%rbp)
	jns	.L364
	movl	$0, %eax
	jmp	.L365
.L364:
	cmpl	$255, 16(%rbp)
	jle	.L363
	movl	$-1, %eax
	jmp	.L365
.L363:
	movl	16(%rbp), %eax
.L365:
	popq	%rbp
	ret
	.seh_endproc
	.def	_ZL16stbi__idct_blockPhiPs;	.scl	3;	.type	32;	.endef
	.seh_proc	_ZL16stbi__idct_blockPhiPs
_ZL16stbi__idct_blockPhiPs:
	pushq	%rbp
	.seh_pushreg	%rbp
	pushq	%rbx
	.seh_pushreg	%rbx
	subq	$440, %rsp
	.seh_stackalloc	440
	leaq	128(%rsp), %rbp
	.seh_setframe	%rbp, 128
	.seh_endprologue
	movq	%rcx, 336(%rbp)
	movl	%edx, 344(%rbp)
	movq	%r8, 352(%rbp)
	leaq	-96(%rbp), %rax
	movq	%rax, 288(%rbp)
	movq	352(%rbp), %rax
	movq	%rax, 272(%rbp)
	movl	$0, 300(%rbp)
.L370:
	cmpl	$7, 300(%rbp)
	jg	.L367
	movq	272(%rbp), %rax
	addq	$16, %rax
	movzwl	(%rax), %eax
	testw	%ax, %ax
	jne	.L368
	movq	272(%rbp), %rax
	addq	$32, %rax
	movzwl	(%rax), %eax
	testw	%ax, %ax
	jne	.L368
	movq	272(%rbp), %rax
	addq	$48, %rax
	movzwl	(%rax), %eax
	testw	%ax, %ax
	jne	.L368
	movq	272(%rbp), %rax
	addq	$64, %rax
	movzwl	(%rax), %eax
	testw	%ax, %ax
	jne	.L368
	movq	272(%rbp), %rax
	addq	$80, %rax
	movzwl	(%rax), %eax
	testw	%ax, %ax
	jne	.L368
	movq	272(%rbp), %rax
	addq	$96, %rax
	movzwl	(%rax), %eax
	testw	%ax, %ax
	jne	.L368
	movq	272(%rbp), %rax
	addq	$112, %rax
	movzwl	(%rax), %eax
	testw	%ax, %ax
	jne	.L368
	movq	272(%rbp), %rax
	movzwl	(%rax), %eax
	cwtl
	sall	$2, %eax
	movl	%eax, 268(%rbp)
	movq	288(%rbp), %rax
	addq	$224, %rax
	movl	268(%rbp), %edx
	movl	%edx, (%rax)
	movq	288(%rbp), %rdx
	addq	$192, %rdx
	movl	(%rax), %eax
	movl	%eax, (%rdx)
	movq	288(%rbp), %rax
	addq	$160, %rax
	movl	(%rdx), %edx
	movl	%edx, (%rax)
	movq	288(%rbp), %rdx
	subq	$-128, %rdx
	movl	(%rax), %eax
	movl	%eax, (%rdx)
	movq	288(%rbp), %rax
	addq	$96, %rax
	movl	(%rdx), %edx
	movl	%edx, (%rax)
	movq	288(%rbp), %rdx
	addq	$64, %rdx
	movl	(%rax), %eax
	movl	%eax, (%rdx)
	movq	288(%rbp), %rax
	addq	$32, %rax
	movl	(%rdx), %edx
	movl	%edx, (%rax)
	movl	(%rax), %edx
	movq	288(%rbp), %rax
	movl	%edx, (%rax)
	jmp	.L369
.L368:
	movq	272(%rbp), %rax
	addq	$32, %rax
	movzwl	(%rax), %eax
	cwtl
	movl	%eax, 264(%rbp)
	movq	272(%rbp), %rax
	addq	$96, %rax
	movzwl	(%rax), %eax
	cwtl
	movl	%eax, 260(%rbp)
	movl	264(%rbp), %edx
	movl	260(%rbp), %eax
	addl	%edx, %eax
	imull	$2217, %eax, %eax
	movl	%eax, 256(%rbp)
	movl	260(%rbp), %eax
	imull	$-7567, %eax, %eax
	movl	256(%rbp), %edx
	addl	%edx, %eax
	movl	%eax, 252(%rbp)
	movl	264(%rbp), %eax
	imull	$3135, %eax, %eax
	movl	256(%rbp), %edx
	addl	%edx, %eax
	movl	%eax, 248(%rbp)
	movq	272(%rbp), %rax
	movzwl	(%rax), %eax
	cwtl
	movl	%eax, 264(%rbp)
	movq	272(%rbp), %rax
	addq	$64, %rax
	movzwl	(%rax), %eax
	cwtl
	movl	%eax, 260(%rbp)
	movl	264(%rbp), %edx
	movl	260(%rbp), %eax
	addl	%edx, %eax
	sall	$12, %eax
	movl	%eax, 244(%rbp)
	movl	264(%rbp), %eax
	subl	260(%rbp), %eax
	sall	$12, %eax
	movl	%eax, 240(%rbp)
	movl	244(%rbp), %edx
	movl	248(%rbp), %eax
	addl	%edx, %eax
	movl	%eax, 236(%rbp)
	movl	244(%rbp), %eax
	subl	248(%rbp), %eax
	movl	%eax, 232(%rbp)
	movl	240(%rbp), %edx
	movl	252(%rbp), %eax
	addl	%edx, %eax
	movl	%eax, 228(%rbp)
	movl	240(%rbp), %eax
	subl	252(%rbp), %eax
	movl	%eax, 224(%rbp)
	movq	272(%rbp), %rax
	addq	$112, %rax
	movzwl	(%rax), %eax
	cwtl
	movl	%eax, 244(%rbp)
	movq	272(%rbp), %rax
	addq	$80, %rax
	movzwl	(%rax), %eax
	cwtl
	movl	%eax, 240(%rbp)
	movq	272(%rbp), %rax
	addq	$48, %rax
	movzwl	(%rax), %eax
	cwtl
	movl	%eax, 252(%rbp)
	movq	272(%rbp), %rax
	addq	$16, %rax
	movzwl	(%rax), %eax
	cwtl
	movl	%eax, 248(%rbp)
	movl	244(%rbp), %edx
	movl	252(%rbp), %eax
	addl	%edx, %eax
	movl	%eax, 260(%rbp)
	movl	240(%rbp), %edx
	movl	248(%rbp), %eax
	addl	%edx, %eax
	movl	%eax, 220(%rbp)
	movl	244(%rbp), %edx
	movl	248(%rbp), %eax
	addl	%edx, %eax
	movl	%eax, 256(%rbp)
	movl	240(%rbp), %edx
	movl	252(%rbp), %eax
	addl	%edx, %eax
	movl	%eax, 264(%rbp)
	movl	260(%rbp), %edx
	movl	220(%rbp), %eax
	addl	%edx, %eax
	imull	$4816, %eax, %eax
	movl	%eax, 216(%rbp)
	movl	244(%rbp), %eax
	imull	$1223, %eax, %eax
	movl	%eax, 244(%rbp)
	movl	240(%rbp), %eax
	imull	$8410, %eax, %eax
	movl	%eax, 240(%rbp)
	movl	252(%rbp), %eax
	imull	$12586, %eax, %eax
	movl	%eax, 252(%rbp)
	movl	248(%rbp), %eax
	imull	$6149, %eax, %eax
	movl	%eax, 248(%rbp)
	movl	256(%rbp), %eax
	imull	$-3685, %eax, %eax
	movl	216(%rbp), %edx
	addl	%edx, %eax
	movl	%eax, 256(%rbp)
	movl	264(%rbp), %eax
	imull	$-10497, %eax, %eax
	movl	216(%rbp), %edx
	addl	%edx, %eax
	movl	%eax, 264(%rbp)
	movl	260(%rbp), %eax
	imull	$-8034, %eax, %eax
	movl	%eax, 260(%rbp)
	movl	220(%rbp), %eax
	imull	$-1597, %eax, %eax
	movl	%eax, 220(%rbp)
	movl	256(%rbp), %edx
	movl	220(%rbp), %eax
	addl	%edx, %eax
	addl	%eax, 248(%rbp)
	movl	264(%rbp), %edx
	movl	260(%rbp), %eax
	addl	%edx, %eax
	addl	%eax, 252(%rbp)
	movl	264(%rbp), %edx
	movl	220(%rbp), %eax
	addl	%edx, %eax
	addl	%eax, 240(%rbp)
	movl	256(%rbp), %edx
	movl	260(%rbp), %eax
	addl	%edx, %eax
	addl	%eax, 244(%rbp)
	addl	$512, 236(%rbp)
	addl	$512, 228(%rbp)
	addl	$512, 224(%rbp)
	addl	$512, 232(%rbp)
	movl	236(%rbp), %edx
	movl	248(%rbp), %eax
	addl	%edx, %eax
	sarl	$10, %eax
	movl	%eax, %edx
	movq	288(%rbp), %rax
	movl	%edx, (%rax)
	movl	236(%rbp), %eax
	subl	248(%rbp), %eax
	movl	%eax, %edx
	movq	288(%rbp), %rax
	addq	$224, %rax
	sarl	$10, %edx
	movl	%edx, (%rax)
	movl	228(%rbp), %edx
	movl	252(%rbp), %eax
	addl	%eax, %edx
	movq	288(%rbp), %rax
	addq	$32, %rax
	sarl	$10, %edx
	movl	%edx, (%rax)
	movl	228(%rbp), %eax
	subl	252(%rbp), %eax
	movl	%eax, %edx
	movq	288(%rbp), %rax
	addq	$192, %rax
	sarl	$10, %edx
	movl	%edx, (%rax)
	movl	224(%rbp), %edx
	movl	240(%rbp), %eax
	addl	%eax, %edx
	movq	288(%rbp), %rax
	addq	$64, %rax
	sarl	$10, %edx
	movl	%edx, (%rax)
	movl	224(%rbp), %eax
	subl	240(%rbp), %eax
	movl	%eax, %edx
	movq	288(%rbp), %rax
	addq	$160, %rax
	sarl	$10, %edx
	movl	%edx, (%rax)
	movl	232(%rbp), %edx
	movl	244(%rbp), %eax
	addl	%eax, %edx
	movq	288(%rbp), %rax
	addq	$96, %rax
	sarl	$10, %edx
	movl	%edx, (%rax)
	movl	232(%rbp), %eax
	subl	244(%rbp), %eax
	movl	%eax, %edx
	movq	288(%rbp), %rax
	subq	$-128, %rax
	sarl	$10, %edx
	movl	%edx, (%rax)
.L369:
	addl	$1, 300(%rbp)
	addq	$2, 272(%rbp)
	addq	$4, 288(%rbp)
	jmp	.L370
.L367:
	movl	$0, 300(%rbp)
	leaq	-96(%rbp), %rax
	movq	%rax, 288(%rbp)
	movq	336(%rbp), %rax
	movq	%rax, 280(%rbp)
.L372:
	cmpl	$7, 300(%rbp)
	jg	.L373
	movq	288(%rbp), %rax
	movl	8(%rax), %eax
	movl	%eax, 212(%rbp)
	movq	288(%rbp), %rax
	movl	24(%rax), %eax
	movl	%eax, 208(%rbp)
	movl	212(%rbp), %edx
	movl	208(%rbp), %eax
	addl	%edx, %eax
	imull	$2217, %eax, %eax
	movl	%eax, 204(%rbp)
	movl	208(%rbp), %eax
	imull	$-7567, %eax, %eax
	movl	204(%rbp), %edx
	addl	%edx, %eax
	movl	%eax, 200(%rbp)
	movl	212(%rbp), %eax
	imull	$3135, %eax, %eax
	movl	204(%rbp), %edx
	addl	%edx, %eax
	movl	%eax, 196(%rbp)
	movq	288(%rbp), %rax
	movl	(%rax), %eax
	movl	%eax, 212(%rbp)
	movq	288(%rbp), %rax
	movl	16(%rax), %eax
	movl	%eax, 208(%rbp)
	movl	212(%rbp), %edx
	movl	208(%rbp), %eax
	addl	%edx, %eax
	sall	$12, %eax
	movl	%eax, 192(%rbp)
	movl	212(%rbp), %eax
	subl	208(%rbp), %eax
	sall	$12, %eax
	movl	%eax, 188(%rbp)
	movl	192(%rbp), %edx
	movl	196(%rbp), %eax
	addl	%edx, %eax
	movl	%eax, 184(%rbp)
	movl	192(%rbp), %eax
	subl	196(%rbp), %eax
	movl	%eax, 180(%rbp)
	movl	188(%rbp), %edx
	movl	200(%rbp), %eax
	addl	%edx, %eax
	movl	%eax, 176(%rbp)
	movl	188(%rbp), %eax
	subl	200(%rbp), %eax
	movl	%eax, 172(%rbp)
	movq	288(%rbp), %rax
	movl	28(%rax), %eax
	movl	%eax, 192(%rbp)
	movq	288(%rbp), %rax
	movl	20(%rax), %eax
	movl	%eax, 188(%rbp)
	movq	288(%rbp), %rax
	movl	12(%rax), %eax
	movl	%eax, 200(%rbp)
	movq	288(%rbp), %rax
	movl	4(%rax), %eax
	movl	%eax, 196(%rbp)
	movl	192(%rbp), %edx
	movl	200(%rbp), %eax
	addl	%edx, %eax
	movl	%eax, 208(%rbp)
	movl	188(%rbp), %edx
	movl	196(%rbp), %eax
	addl	%edx, %eax
	movl	%eax, 168(%rbp)
	movl	192(%rbp), %edx
	movl	196(%rbp), %eax
	addl	%edx, %eax
	movl	%eax, 204(%rbp)
	movl	188(%rbp), %edx
	movl	200(%rbp), %eax
	addl	%edx, %eax
	movl	%eax, 212(%rbp)
	movl	208(%rbp), %edx
	movl	168(%rbp), %eax
	addl	%edx, %eax
	imull	$4816, %eax, %eax
	movl	%eax, 164(%rbp)
	movl	192(%rbp), %eax
	imull	$1223, %eax, %eax
	movl	%eax, 192(%rbp)
	movl	188(%rbp), %eax
	imull	$8410, %eax, %eax
	movl	%eax, 188(%rbp)
	movl	200(%rbp), %eax
	imull	$12586, %eax, %eax
	movl	%eax, 200(%rbp)
	movl	196(%rbp), %eax
	imull	$6149, %eax, %eax
	movl	%eax, 196(%rbp)
	movl	204(%rbp), %eax
	imull	$-3685, %eax, %eax
	movl	164(%rbp), %edx
	addl	%edx, %eax
	movl	%eax, 204(%rbp)
	movl	212(%rbp), %eax
	imull	$-10497, %eax, %eax
	movl	164(%rbp), %edx
	addl	%edx, %eax
	movl	%eax, 212(%rbp)
	movl	208(%rbp), %eax
	imull	$-8034, %eax, %eax
	movl	%eax, 208(%rbp)
	movl	168(%rbp), %eax
	imull	$-1597, %eax, %eax
	movl	%eax, 168(%rbp)
	movl	204(%rbp), %edx
	movl	168(%rbp), %eax
	addl	%edx, %eax
	addl	%eax, 196(%rbp)
	movl	212(%rbp), %edx
	movl	208(%rbp), %eax
	addl	%edx, %eax
	addl	%eax, 200(%rbp)
	movl	212(%rbp), %edx
	movl	168(%rbp), %eax
	addl	%edx, %eax
	addl	%eax, 188(%rbp)
	movl	204(%rbp), %edx
	movl	208(%rbp), %eax
	addl	%edx, %eax
	addl	%eax, 192(%rbp)
	addl	$16842752, 184(%rbp)
	addl	$16842752, 176(%rbp)
	addl	$16842752, 172(%rbp)
	addl	$16842752, 180(%rbp)
	movl	184(%rbp), %edx
	movl	196(%rbp), %eax
	addl	%edx, %eax
	sarl	$17, %eax
	movl	%eax, %ecx
	call	_ZL11stbi__clampi
	movl	%eax, %edx
	movq	280(%rbp), %rax
	movb	%dl, (%rax)
	movl	184(%rbp), %eax
	subl	196(%rbp), %eax
	sarl	$17, %eax
	movq	280(%rbp), %rdx
	leaq	7(%rdx), %rbx
	movl	%eax, %ecx
	call	_ZL11stbi__clampi
	movb	%al, (%rbx)
	movl	176(%rbp), %edx
	movl	200(%rbp), %eax
	addl	%edx, %eax
	sarl	$17, %eax
	movq	280(%rbp), %rdx
	leaq	1(%rdx), %rbx
	movl	%eax, %ecx
	call	_ZL11stbi__clampi
	movb	%al, (%rbx)
	movl	176(%rbp), %eax
	subl	200(%rbp), %eax
	sarl	$17, %eax
	movq	280(%rbp), %rdx
	leaq	6(%rdx), %rbx
	movl	%eax, %ecx
	call	_ZL11stbi__clampi
	movb	%al, (%rbx)
	movl	172(%rbp), %edx
	movl	188(%rbp), %eax
	addl	%edx, %eax
	sarl	$17, %eax
	movq	280(%rbp), %rdx
	leaq	2(%rdx), %rbx
	movl	%eax, %ecx
	call	_ZL11stbi__clampi
	movb	%al, (%rbx)
	movl	172(%rbp), %eax
	subl	188(%rbp), %eax
	sarl	$17, %eax
	movq	280(%rbp), %rdx
	leaq	5(%rdx), %rbx
	movl	%eax, %ecx
	call	_ZL11stbi__clampi
	movb	%al, (%rbx)
	movl	180(%rbp), %edx
	movl	192(%rbp), %eax
	addl	%edx, %eax
	sarl	$17, %eax
	movq	280(%rbp), %rdx
	leaq	3(%rdx), %rbx
	movl	%eax, %ecx
	call	_ZL11stbi__clampi
	movb	%al, (%rbx)
	movl	180(%rbp), %eax
	subl	192(%rbp), %eax
	sarl	$17, %eax
	movq	280(%rbp), %rdx
	leaq	4(%rdx), %rbx
	movl	%eax, %ecx
	call	_ZL11stbi__clampi
	movb	%al, (%rbx)
	addl	$1, 300(%rbp)
	addq	$32, 288(%rbp)
	movl	344(%rbp), %eax
	cltq
	addq	%rax, 280(%rbp)
	jmp	.L372
.L373:
	nop
	addq	$440, %rsp
	popq	%rbx
	popq	%rbp
	ret
	.seh_endproc
	.def	_ZL16stbi__get_markerP10stbi__jpeg;	.scl	3;	.type	32;	.endef
	.seh_proc	_ZL16stbi__get_markerP10stbi__jpeg
_ZL16stbi__get_markerP10stbi__jpeg:
	pushq	%rbp
	.seh_pushreg	%rbp
	movq	%rsp, %rbp
	.seh_setframe	%rbp, 0
	subq	$48, %rsp
	.seh_stackalloc	48
	.seh_endprologue
	movq	%rcx, 16(%rbp)
	movq	16(%rbp), %rax
	movzbl	18216(%rax), %eax
	cmpb	$-1, %al
	je	.L375
	movq	16(%rbp), %rax
	movzbl	18216(%rax), %eax
	movb	%al, -1(%rbp)
	movq	16(%rbp), %rax
	movb	$-1, 18216(%rax)
	movzbl	-1(%rbp), %eax
	jmp	.L376
.L375:
	movq	16(%rbp), %rax
	movq	(%rax), %rax
	movq	%rax, %rcx
	call	_ZL10stbi__get8P13stbi__context
	movb	%al, -1(%rbp)
	cmpb	$-1, -1(%rbp)
	je	.L377
	movl	$-1, %eax
	jmp	.L376
.L377:
	cmpb	$-1, -1(%rbp)
	jne	.L378
	movq	16(%rbp), %rax
	movq	(%rax), %rax
	movq	%rax, %rcx
	call	_ZL10stbi__get8P13stbi__context
	movb	%al, -1(%rbp)
	jmp	.L377
.L378:
	movzbl	-1(%rbp), %eax
.L376:
	addq	$48, %rsp
	popq	%rbp
	ret
	.seh_endproc
	.def	_ZL16stbi__jpeg_resetP10stbi__jpeg;	.scl	3;	.type	32;	.endef
	.seh_proc	_ZL16stbi__jpeg_resetP10stbi__jpeg
_ZL16stbi__jpeg_resetP10stbi__jpeg:
	pushq	%rbp
	.seh_pushreg	%rbp
	movq	%rsp, %rbp
	.seh_setframe	%rbp, 0
	.seh_endprologue
	movq	%rcx, 16(%rbp)
	movq	16(%rbp), %rax
	movl	$0, 18212(%rax)
	movq	16(%rbp), %rax
	movl	$0, 18208(%rax)
	movq	16(%rbp), %rax
	movl	$0, 18220(%rax)
	movq	16(%rbp), %rax
	movl	$0, 18040(%rax)
	movq	16(%rbp), %rax
	movl	18040(%rax), %edx
	movq	16(%rbp), %rax
	movl	%edx, 17944(%rax)
	movq	16(%rbp), %rax
	movl	17944(%rax), %edx
	movq	16(%rbp), %rax
	movl	%edx, 17848(%rax)
	movq	16(%rbp), %rax
	movb	$-1, 18216(%rax)
	movq	16(%rbp), %rax
	movl	18268(%rax), %eax
	testl	%eax, %eax
	je	.L380
	movq	16(%rbp), %rax
	movl	18268(%rax), %eax
	jmp	.L381
.L380:
	movl	$2147483647, %eax
.L381:
	movq	16(%rbp), %rdx
	movl	%eax, 18272(%rdx)
	movq	16(%rbp), %rax
	movl	$0, 18244(%rax)
	nop
	popq	%rbp
	ret
	.seh_endproc
	.def	_ZL30stbi__parse_entropy_coded_dataP10stbi__jpeg;	.scl	3;	.type	32;	.endef
	.seh_proc	_ZL30stbi__parse_entropy_coded_dataP10stbi__jpeg
_ZL30stbi__parse_entropy_coded_dataP10stbi__jpeg:
	pushq	%rbp
	.seh_pushreg	%rbp
	subq	$336, %rsp
	.seh_stackalloc	336
	leaq	128(%rsp), %rbp
	.seh_setframe	%rbp, 128
	.seh_endprologue
	movq	%rcx, 224(%rbp)
	movq	224(%rbp), %rcx
	call	_ZL16stbi__jpeg_resetP10stbi__jpeg
	movq	224(%rbp), %rax
	movl	18224(%rax), %eax
	testl	%eax, %eax
	jne	.L383
	movq	224(%rbp), %rax
	movl	18248(%rax), %eax
	cmpl	$1, %eax
	jne	.L384
	movq	224(%rbp), %rax
	movl	18252(%rax), %eax
	movl	%eax, 148(%rbp)
	movq	224(%rbp), %rcx
	movl	148(%rbp), %eax
	movslq	%eax, %rdx
	movq	%rdx, %rax
	addq	%rax, %rax
	addq	%rdx, %rax
	salq	$5, %rax
	addq	%rcx, %rax
	addq	$17852, %rax
	movl	(%rax), %eax
	addl	$7, %eax
	sarl	$3, %eax
	movl	%eax, 144(%rbp)
	movq	224(%rbp), %rcx
	movl	148(%rbp), %eax
	movslq	%eax, %rdx
	movq	%rdx, %rax
	addq	%rax, %rax
	addq	%rdx, %rax
	salq	$5, %rax
	addq	%rcx, %rax
	addq	$17856, %rax
	movl	(%rax), %eax
	addl	$7, %eax
	sarl	$3, %eax
	movl	%eax, 140(%rbp)
	movl	$0, 200(%rbp)
.L394:
	movl	200(%rbp), %eax
	cmpl	140(%rbp), %eax
	jge	.L385
	movl	$0, 204(%rbp)
.L393:
	movl	204(%rbp), %eax
	cmpl	144(%rbp), %eax
	jge	.L386
	movq	224(%rbp), %rcx
	movl	148(%rbp), %eax
	movslq	%eax, %rdx
	movq	%rdx, %rax
	addq	%rax, %rax
	addq	%rdx, %rax
	salq	$5, %rax
	addq	%rcx, %rax
	addq	$17844, %rax
	movl	(%rax), %eax
	movl	%eax, 136(%rbp)
	movq	224(%rbp), %rcx
	movl	148(%rbp), %eax
	movslq	%eax, %rdx
	movq	%rdx, %rax
	addq	%rax, %rax
	addq	%rdx, %rax
	salq	$5, %rax
	addq	%rcx, %rax
	addq	$17836, %rax
	movl	(%rax), %eax
	cltq
	addq	$210, %rax
	salq	$6, %rax
	movq	%rax, %rdx
	movq	224(%rbp), %rax
	addq	%rdx, %rax
	leaq	8(%rax), %r8
	movl	136(%rbp), %eax
	cltq
	salq	$10, %rax
	leaq	13696(%rax), %rdx
	movq	224(%rbp), %rax
	addq	%rdx, %rax
	leaq	8(%rax), %rcx
	movq	224(%rbp), %rax
	leaq	6728(%rax), %rdx
	movl	136(%rbp), %eax
	cltq
	imulq	$1680, %rax, %rax
	leaq	(%rdx,%rax), %r9
	movq	224(%rbp), %rax
	leaq	8(%rax), %r10
	movq	224(%rbp), %r11
	movl	148(%rbp), %eax
	movslq	%eax, %rdx
	movq	%rdx, %rax
	addq	%rax, %rax
	addq	%rdx, %rax
	salq	$5, %rax
	addq	%r11, %rax
	addq	$17840, %rax
	movl	(%rax), %eax
	cltq
	imulq	$1680, %rax, %rax
	addq	%rax, %r10
	leaq	-64(%rbp), %rax
	movq	%r8, 48(%rsp)
	movl	148(%rbp), %edx
	movl	%edx, 40(%rsp)
	movq	%rcx, 32(%rsp)
	movq	%r10, %r8
	movq	%rax, %rdx
	movq	224(%rbp), %rcx
	call	_ZL23stbi__jpeg_decode_blockP10stbi__jpegPsP13stbi__huffmanS3_S1_iPh
	testl	%eax, %eax
	sete	%al
	testb	%al, %al
	je	.L387
	movl	$0, %eax
	jmp	.L395
.L387:
	movq	224(%rbp), %rax
	movq	18280(%rax), %r9
	movq	224(%rbp), %rcx
	movl	148(%rbp), %eax
	movslq	%eax, %rdx
	movq	%rdx, %rax
	addq	%rax, %rax
	addq	%rdx, %rax
	salq	$5, %rax
	addq	%rcx, %rax
	addq	$17860, %rax
	movl	(%rax), %ecx
	movq	224(%rbp), %r8
	movl	148(%rbp), %eax
	movslq	%eax, %rdx
	movq	%rdx, %rax
	addq	%rax, %rax
	addq	%rdx, %rax
	salq	$5, %rax
	addq	%r8, %rax
	addq	$17872, %rax
	movq	(%rax), %r8
	movq	224(%rbp), %r10
	movl	148(%rbp), %eax
	movslq	%eax, %rdx
	movq	%rdx, %rax
	addq	%rax, %rax
	addq	%rdx, %rax
	salq	$5, %rax
	addq	%r10, %rax
	addq	$17860, %rax
	movl	(%rax), %eax
	imull	200(%rbp), %eax
	sall	$3, %eax
	movslq	%eax, %rdx
	movl	204(%rbp), %eax
	sall	$3, %eax
	cltq
	addq	%rdx, %rax
	addq	%r8, %rax
	leaq	-64(%rbp), %rdx
	movq	%rdx, %r8
	movl	%ecx, %edx
	movq	%rax, %rcx
	call	*%r9
	movq	224(%rbp), %rax
	movl	18272(%rax), %eax
	leal	-1(%rax), %edx
	movq	224(%rbp), %rax
	movl	%edx, 18272(%rax)
	movq	224(%rbp), %rax
	movl	18272(%rax), %eax
	testl	%eax, %eax
	setle	%al
	testb	%al, %al
	je	.L389
	movq	224(%rbp), %rax
	movl	18212(%rax), %eax
	cmpl	$23, %eax
	jg	.L390
	movq	224(%rbp), %rcx
	call	_ZL24stbi__grow_buffer_unsafeP10stbi__jpeg
.L390:
	movq	224(%rbp), %rax
	movzbl	18216(%rax), %eax
	cmpb	$-49, %al
	jbe	.L391
	movq	224(%rbp), %rax
	movzbl	18216(%rax), %eax
	cmpb	$-41, %al
	jbe	.L392
.L391:
	movl	$1, %eax
	jmp	.L395
.L392:
	movq	224(%rbp), %rcx
	call	_ZL16stbi__jpeg_resetP10stbi__jpeg
.L389:
	addl	$1, 204(%rbp)
	jmp	.L393
.L386:
	addl	$1, 200(%rbp)
	jmp	.L394
.L385:
	movl	$1, %eax
	jmp	.L395
.L384:
	movl	$0, 192(%rbp)
.L411:
	movq	224(%rbp), %rax
	movl	17812(%rax), %eax
	cmpl	%eax, 192(%rbp)
	jge	.L396
	movl	$0, 196(%rbp)
.L410:
	movq	224(%rbp), %rax
	movl	17808(%rax), %eax
	cmpl	%eax, 196(%rbp)
	jge	.L397
	movl	$0, 188(%rbp)
.L405:
	movq	224(%rbp), %rax
	movl	18248(%rax), %eax
	cmpl	%eax, 188(%rbp)
	jge	.L398
	movq	224(%rbp), %rax
	movl	188(%rbp), %edx
	movslq	%edx, %rdx
	addq	$4560, %rdx
	movl	12(%rax,%rdx,4), %eax
	movl	%eax, 132(%rbp)
	movl	$0, 180(%rbp)
.L404:
	movq	224(%rbp), %rcx
	movl	132(%rbp), %eax
	movslq	%eax, %rdx
	movq	%rdx, %rax
	addq	%rax, %rax
	addq	%rdx, %rax
	salq	$5, %rax
	addq	%rcx, %rax
	addq	$17832, %rax
	movl	(%rax), %eax
	cmpl	%eax, 180(%rbp)
	jge	.L399
	movl	$0, 184(%rbp)
.L403:
	movq	224(%rbp), %rcx
	movl	132(%rbp), %eax
	movslq	%eax, %rdx
	movq	%rdx, %rax
	addq	%rax, %rax
	addq	%rdx, %rax
	salq	$5, %rax
	addq	%rcx, %rax
	addq	$17828, %rax
	movl	(%rax), %eax
	cmpl	%eax, 184(%rbp)
	jge	.L400
	movq	224(%rbp), %rcx
	movl	132(%rbp), %eax
	movslq	%eax, %rdx
	movq	%rdx, %rax
	addq	%rax, %rax
	addq	%rdx, %rax
	salq	$5, %rax
	addq	%rcx, %rax
	addq	$17828, %rax
	movl	(%rax), %eax
	imull	196(%rbp), %eax
	movl	184(%rbp), %edx
	addl	%edx, %eax
	sall	$3, %eax
	movl	%eax, 128(%rbp)
	movq	224(%rbp), %rcx
	movl	132(%rbp), %eax
	movslq	%eax, %rdx
	movq	%rdx, %rax
	addq	%rax, %rax
	addq	%rdx, %rax
	salq	$5, %rax
	addq	%rcx, %rax
	addq	$17832, %rax
	movl	(%rax), %eax
	imull	192(%rbp), %eax
	movl	180(%rbp), %edx
	addl	%edx, %eax
	sall	$3, %eax
	movl	%eax, 124(%rbp)
	movq	224(%rbp), %rcx
	movl	132(%rbp), %eax
	movslq	%eax, %rdx
	movq	%rdx, %rax
	addq	%rax, %rax
	addq	%rdx, %rax
	salq	$5, %rax
	addq	%rcx, %rax
	addq	$17844, %rax
	movl	(%rax), %eax
	movl	%eax, 120(%rbp)
	movq	224(%rbp), %rcx
	movl	132(%rbp), %eax
	movslq	%eax, %rdx
	movq	%rdx, %rax
	addq	%rax, %rax
	addq	%rdx, %rax
	salq	$5, %rax
	addq	%rcx, %rax
	addq	$17836, %rax
	movl	(%rax), %eax
	cltq
	addq	$210, %rax
	salq	$6, %rax
	movq	%rax, %rdx
	movq	224(%rbp), %rax
	addq	%rdx, %rax
	leaq	8(%rax), %r8
	movl	120(%rbp), %eax
	cltq
	salq	$10, %rax
	leaq	13696(%rax), %rdx
	movq	224(%rbp), %rax
	addq	%rdx, %rax
	leaq	8(%rax), %rcx
	movq	224(%rbp), %rax
	leaq	6728(%rax), %rdx
	movl	120(%rbp), %eax
	cltq
	imulq	$1680, %rax, %rax
	leaq	(%rdx,%rax), %r9
	movq	224(%rbp), %rax
	leaq	8(%rax), %r10
	movq	224(%rbp), %r11
	movl	132(%rbp), %eax
	movslq	%eax, %rdx
	movq	%rdx, %rax
	addq	%rax, %rax
	addq	%rdx, %rax
	salq	$5, %rax
	addq	%r11, %rax
	addq	$17840, %rax
	movl	(%rax), %eax
	cltq
	imulq	$1680, %rax, %rax
	addq	%rax, %r10
	leaq	-64(%rbp), %rax
	movq	%r8, 48(%rsp)
	movl	132(%rbp), %edx
	movl	%edx, 40(%rsp)
	movq	%rcx, 32(%rsp)
	movq	%r10, %r8
	movq	%rax, %rdx
	movq	224(%rbp), %rcx
	call	_ZL23stbi__jpeg_decode_blockP10stbi__jpegPsP13stbi__huffmanS3_S1_iPh
	testl	%eax, %eax
	sete	%al
	testb	%al, %al
	je	.L401
	movl	$0, %eax
	jmp	.L395
.L401:
	movq	224(%rbp), %rax
	movq	18280(%rax), %r9
	movq	224(%rbp), %rcx
	movl	132(%rbp), %eax
	movslq	%eax, %rdx
	movq	%rdx, %rax
	addq	%rax, %rax
	addq	%rdx, %rax
	salq	$5, %rax
	addq	%rcx, %rax
	addq	$17860, %rax
	movl	(%rax), %ecx
	movq	224(%rbp), %r8
	movl	132(%rbp), %eax
	movslq	%eax, %rdx
	movq	%rdx, %rax
	addq	%rax, %rax
	addq	%rdx, %rax
	salq	$5, %rax
	addq	%r8, %rax
	addq	$17872, %rax
	movq	(%rax), %r8
	movq	224(%rbp), %r10
	movl	132(%rbp), %eax
	movslq	%eax, %rdx
	movq	%rdx, %rax
	addq	%rax, %rax
	addq	%rdx, %rax
	salq	$5, %rax
	addq	%r10, %rax
	addq	$17860, %rax
	movl	(%rax), %eax
	imull	124(%rbp), %eax
	movslq	%eax, %rdx
	movl	128(%rbp), %eax
	cltq
	addq	%rdx, %rax
	addq	%r8, %rax
	leaq	-64(%rbp), %rdx
	movq	%rdx, %r8
	movl	%ecx, %edx
	movq	%rax, %rcx
	call	*%r9
	addl	$1, 184(%rbp)
	jmp	.L403
.L400:
	addl	$1, 180(%rbp)
	jmp	.L404
.L399:
	addl	$1, 188(%rbp)
	jmp	.L405
.L398:
	movq	224(%rbp), %rax
	movl	18272(%rax), %eax
	leal	-1(%rax), %edx
	movq	224(%rbp), %rax
	movl	%edx, 18272(%rax)
	movq	224(%rbp), %rax
	movl	18272(%rax), %eax
	testl	%eax, %eax
	setle	%al
	testb	%al, %al
	je	.L406
	movq	224(%rbp), %rax
	movl	18212(%rax), %eax
	cmpl	$23, %eax
	jg	.L407
	movq	224(%rbp), %rcx
	call	_ZL24stbi__grow_buffer_unsafeP10stbi__jpeg
.L407:
	movq	224(%rbp), %rax
	movzbl	18216(%rax), %eax
	cmpb	$-49, %al
	jbe	.L408
	movq	224(%rbp), %rax
	movzbl	18216(%rax), %eax
	cmpb	$-41, %al
	jbe	.L409
.L408:
	movl	$1, %eax
	jmp	.L395
.L409:
	movq	224(%rbp), %rcx
	call	_ZL16stbi__jpeg_resetP10stbi__jpeg
.L406:
	addl	$1, 196(%rbp)
	jmp	.L410
.L397:
	addl	$1, 192(%rbp)
	jmp	.L411
.L396:
	movl	$1, %eax
	jmp	.L395
.L383:
	movq	224(%rbp), %rax
	movl	18248(%rax), %eax
	cmpl	$1, %eax
	jne	.L412
	movq	224(%rbp), %rax
	movl	18252(%rax), %eax
	movl	%eax, 116(%rbp)
	movq	224(%rbp), %rcx
	movl	116(%rbp), %eax
	movslq	%eax, %rdx
	movq	%rdx, %rax
	addq	%rax, %rax
	addq	%rdx, %rax
	salq	$5, %rax
	addq	%rcx, %rax
	addq	$17852, %rax
	movl	(%rax), %eax
	addl	$7, %eax
	sarl	$3, %eax
	movl	%eax, 112(%rbp)
	movq	224(%rbp), %rcx
	movl	116(%rbp), %eax
	movslq	%eax, %rdx
	movq	%rdx, %rax
	addq	%rax, %rax
	addq	%rdx, %rax
	salq	$5, %rax
	addq	%rcx, %rax
	addq	$17856, %rax
	movl	(%rax), %eax
	addl	$7, %eax
	sarl	$3, %eax
	movl	%eax, 108(%rbp)
	movl	$0, 172(%rbp)
.L422:
	movl	172(%rbp), %eax
	cmpl	108(%rbp), %eax
	jge	.L413
	movl	$0, 176(%rbp)
.L421:
	movl	176(%rbp), %eax
	cmpl	112(%rbp), %eax
	jge	.L414
	movq	224(%rbp), %rcx
	movl	116(%rbp), %eax
	movslq	%eax, %rdx
	movq	%rdx, %rax
	addq	%rax, %rax
	addq	%rdx, %rax
	salq	$5, %rax
	addq	%rcx, %rax
	addq	$17904, %rax
	movq	(%rax), %rcx
	movq	224(%rbp), %r8
	movl	116(%rbp), %eax
	movslq	%eax, %rdx
	movq	%rdx, %rax
	addq	%rax, %rax
	addq	%rdx, %rax
	salq	$5, %rax
	addq	%r8, %rax
	addq	$17912, %rax
	movl	(%rax), %eax
	imull	172(%rbp), %eax
	movl	176(%rbp), %edx
	addl	%edx, %eax
	sall	$6, %eax
	cltq
	addq	%rax, %rax
	addq	%rcx, %rax
	movq	%rax, 96(%rbp)
	movq	224(%rbp), %rax
	movl	18228(%rax), %eax
	testl	%eax, %eax
	jne	.L415
	movq	224(%rbp), %rcx
	movl	116(%rbp), %eax
	movslq	%eax, %rdx
	movq	%rdx, %rax
	addq	%rax, %rax
	addq	%rdx, %rax
	salq	$5, %rax
	addq	%rcx, %rax
	addq	$17840, %rax
	movl	(%rax), %eax
	cltq
	imulq	$1680, %rax, %rax
	movq	224(%rbp), %rdx
	addq	%rdx, %rax
	leaq	8(%rax), %rdx
	movl	116(%rbp), %ecx
	movq	96(%rbp), %rax
	movl	%ecx, %r9d
	movq	%rdx, %r8
	movq	%rax, %rdx
	movq	224(%rbp), %rcx
	call	_ZL31stbi__jpeg_decode_block_prog_dcP10stbi__jpegPsP13stbi__huffmani
	testl	%eax, %eax
	sete	%al
	testb	%al, %al
	je	.L416
	movl	$0, %eax
	jmp	.L395
.L415:
	movq	224(%rbp), %rcx
	movl	116(%rbp), %eax
	movslq	%eax, %rdx
	movq	%rdx, %rax
	addq	%rax, %rax
	addq	%rdx, %rax
	salq	$5, %rax
	addq	%rcx, %rax
	addq	$17844, %rax
	movl	(%rax), %eax
	movl	%eax, 92(%rbp)
	movl	92(%rbp), %eax
	cltq
	salq	$10, %rax
	leaq	13696(%rax), %rdx
	movq	224(%rbp), %rax
	addq	%rdx, %rax
	leaq	8(%rax), %rcx
	movl	92(%rbp), %eax
	cltq
	imulq	$1680, %rax, %rax
	leaq	6720(%rax), %rdx
	movq	224(%rbp), %rax
	addq	%rdx, %rax
	leaq	8(%rax), %rdx
	movq	96(%rbp), %rax
	movq	%rcx, %r9
	movq	%rdx, %r8
	movq	%rax, %rdx
	movq	224(%rbp), %rcx
	call	_ZL31stbi__jpeg_decode_block_prog_acP10stbi__jpegPsP13stbi__huffmanS1_
	testl	%eax, %eax
	sete	%al
	testb	%al, %al
	je	.L416
	movl	$0, %eax
	jmp	.L395
.L416:
	movq	224(%rbp), %rax
	movl	18272(%rax), %eax
	leal	-1(%rax), %edx
	movq	224(%rbp), %rax
	movl	%edx, 18272(%rax)
	movq	224(%rbp), %rax
	movl	18272(%rax), %eax
	testl	%eax, %eax
	setle	%al
	testb	%al, %al
	je	.L417
	movq	224(%rbp), %rax
	movl	18212(%rax), %eax
	cmpl	$23, %eax
	jg	.L418
	movq	224(%rbp), %rcx
	call	_ZL24stbi__grow_buffer_unsafeP10stbi__jpeg
.L418:
	movq	224(%rbp), %rax
	movzbl	18216(%rax), %eax
	cmpb	$-49, %al
	jbe	.L419
	movq	224(%rbp), %rax
	movzbl	18216(%rax), %eax
	cmpb	$-41, %al
	jbe	.L420
.L419:
	movl	$1, %eax
	jmp	.L395
.L420:
	movq	224(%rbp), %rcx
	call	_ZL16stbi__jpeg_resetP10stbi__jpeg
.L417:
	addl	$1, 176(%rbp)
	jmp	.L421
.L414:
	addl	$1, 172(%rbp)
	jmp	.L422
.L413:
	movl	$1, %eax
	jmp	.L395
.L412:
	movl	$0, 164(%rbp)
.L437:
	movq	224(%rbp), %rax
	movl	17812(%rax), %eax
	cmpl	%eax, 164(%rbp)
	jge	.L423
	movl	$0, 168(%rbp)
.L436:
	movq	224(%rbp), %rax
	movl	17808(%rax), %eax
	cmpl	%eax, 168(%rbp)
	jge	.L424
	movl	$0, 160(%rbp)
.L431:
	movq	224(%rbp), %rax
	movl	18248(%rax), %eax
	cmpl	%eax, 160(%rbp)
	jge	.L425
	movq	224(%rbp), %rax
	movl	160(%rbp), %edx
	movslq	%edx, %rdx
	addq	$4560, %rdx
	movl	12(%rax,%rdx,4), %eax
	movl	%eax, 88(%rbp)
	movl	$0, 152(%rbp)
.L430:
	movq	224(%rbp), %rcx
	movl	88(%rbp), %eax
	movslq	%eax, %rdx
	movq	%rdx, %rax
	addq	%rax, %rax
	addq	%rdx, %rax
	salq	$5, %rax
	addq	%rcx, %rax
	addq	$17832, %rax
	movl	(%rax), %eax
	cmpl	%eax, 152(%rbp)
	jge	.L426
	movl	$0, 156(%rbp)
.L429:
	movq	224(%rbp), %rcx
	movl	88(%rbp), %eax
	movslq	%eax, %rdx
	movq	%rdx, %rax
	addq	%rax, %rax
	addq	%rdx, %rax
	salq	$5, %rax
	addq	%rcx, %rax
	addq	$17828, %rax
	movl	(%rax), %eax
	cmpl	%eax, 156(%rbp)
	jge	.L427
	movq	224(%rbp), %rcx
	movl	88(%rbp), %eax
	movslq	%eax, %rdx
	movq	%rdx, %rax
	addq	%rax, %rax
	addq	%rdx, %rax
	salq	$5, %rax
	addq	%rcx, %rax
	addq	$17828, %rax
	movl	(%rax), %eax
	imull	168(%rbp), %eax
	movl	156(%rbp), %edx
	addl	%edx, %eax
	movl	%eax, 84(%rbp)
	movq	224(%rbp), %rcx
	movl	88(%rbp), %eax
	movslq	%eax, %rdx
	movq	%rdx, %rax
	addq	%rax, %rax
	addq	%rdx, %rax
	salq	$5, %rax
	addq	%rcx, %rax
	addq	$17832, %rax
	movl	(%rax), %eax
	imull	164(%rbp), %eax
	movl	152(%rbp), %edx
	addl	%edx, %eax
	movl	%eax, 80(%rbp)
	movq	224(%rbp), %rcx
	movl	88(%rbp), %eax
	movslq	%eax, %rdx
	movq	%rdx, %rax
	addq	%rax, %rax
	addq	%rdx, %rax
	salq	$5, %rax
	addq	%rcx, %rax
	addq	$17904, %rax
	movq	(%rax), %rcx
	movq	224(%rbp), %r8
	movl	88(%rbp), %eax
	movslq	%eax, %rdx
	movq	%rdx, %rax
	addq	%rax, %rax
	addq	%rdx, %rax
	salq	$5, %rax
	addq	%r8, %rax
	addq	$17912, %rax
	movl	(%rax), %eax
	imull	80(%rbp), %eax
	movl	84(%rbp), %edx
	addl	%edx, %eax
	sall	$6, %eax
	cltq
	addq	%rax, %rax
	addq	%rcx, %rax
	movq	%rax, 72(%rbp)
	movq	224(%rbp), %rcx
	movl	88(%rbp), %eax
	movslq	%eax, %rdx
	movq	%rdx, %rax
	addq	%rax, %rax
	addq	%rdx, %rax
	salq	$5, %rax
	addq	%rcx, %rax
	addq	$17840, %rax
	movl	(%rax), %eax
	cltq
	imulq	$1680, %rax, %rax
	movq	224(%rbp), %rdx
	addq	%rdx, %rax
	leaq	8(%rax), %rdx
	movl	88(%rbp), %ecx
	movq	72(%rbp), %rax
	movl	%ecx, %r9d
	movq	%rdx, %r8
	movq	%rax, %rdx
	movq	224(%rbp), %rcx
	call	_ZL31stbi__jpeg_decode_block_prog_dcP10stbi__jpegPsP13stbi__huffmani
	testl	%eax, %eax
	sete	%al
	testb	%al, %al
	je	.L428
	movl	$0, %eax
	jmp	.L395
.L428:
	addl	$1, 156(%rbp)
	jmp	.L429
.L427:
	addl	$1, 152(%rbp)
	jmp	.L430
.L426:
	addl	$1, 160(%rbp)
	jmp	.L431
.L425:
	movq	224(%rbp), %rax
	movl	18272(%rax), %eax
	leal	-1(%rax), %edx
	movq	224(%rbp), %rax
	movl	%edx, 18272(%rax)
	movq	224(%rbp), %rax
	movl	18272(%rax), %eax
	testl	%eax, %eax
	setle	%al
	testb	%al, %al
	je	.L432
	movq	224(%rbp), %rax
	movl	18212(%rax), %eax
	cmpl	$23, %eax
	jg	.L433
	movq	224(%rbp), %rcx
	call	_ZL24stbi__grow_buffer_unsafeP10stbi__jpeg
.L433:
	movq	224(%rbp), %rax
	movzbl	18216(%rax), %eax
	cmpb	$-49, %al
	jbe	.L434
	movq	224(%rbp), %rax
	movzbl	18216(%rax), %eax
	cmpb	$-41, %al
	jbe	.L435
.L434:
	movl	$1, %eax
	jmp	.L395
.L435:
	movq	224(%rbp), %rcx
	call	_ZL16stbi__jpeg_resetP10stbi__jpeg
.L432:
	addl	$1, 168(%rbp)
	jmp	.L436
.L424:
	addl	$1, 164(%rbp)
	jmp	.L437
.L423:
	movl	$1, %eax
.L395:
	addq	$336, %rsp
	popq	%rbp
	ret
	.seh_endproc
	.def	_ZL21stbi__jpeg_dequantizePsPh;	.scl	3;	.type	32;	.endef
	.seh_proc	_ZL21stbi__jpeg_dequantizePsPh
_ZL21stbi__jpeg_dequantizePsPh:
	pushq	%rbp
	.seh_pushreg	%rbp
	movq	%rsp, %rbp
	.seh_setframe	%rbp, 0
	subq	$16, %rsp
	.seh_stackalloc	16
	.seh_endprologue
	movq	%rcx, 16(%rbp)
	movq	%rdx, 24(%rbp)
	movl	$0, -4(%rbp)
.L440:
	cmpl	$63, -4(%rbp)
	jg	.L441
	movl	-4(%rbp), %eax
	cltq
	leaq	(%rax,%rax), %rdx
	movq	16(%rbp), %rax
	addq	%rdx, %rax
	movzwl	(%rax), %eax
	movl	%eax, %ecx
	movl	-4(%rbp), %eax
	cltq
	movq	24(%rbp), %rdx
	addq	%rdx, %rax
	movzbl	(%rax), %eax
	movzbl	%al, %eax
	imull	%eax, %ecx
	movl	%ecx, %edx
	movl	-4(%rbp), %eax
	cltq
	leaq	(%rax,%rax), %rcx
	movq	16(%rbp), %rax
	addq	%rcx, %rax
	movw	%dx, (%rax)
	addl	$1, -4(%rbp)
	jmp	.L440
.L441:
	nop
	addq	$16, %rsp
	popq	%rbp
	ret
	.seh_endproc
	.def	_ZL17stbi__jpeg_finishP10stbi__jpeg;	.scl	3;	.type	32;	.endef
	.seh_proc	_ZL17stbi__jpeg_finishP10stbi__jpeg
_ZL17stbi__jpeg_finishP10stbi__jpeg:
	pushq	%rbp
	.seh_pushreg	%rbp
	movq	%rsp, %rbp
	.seh_setframe	%rbp, 0
	subq	$64, %rsp
	.seh_stackalloc	64
	.seh_endprologue
	movq	%rcx, 16(%rbp)
	movq	16(%rbp), %rax
	movl	18224(%rax), %eax
	testl	%eax, %eax
	je	.L450
	movl	$0, -12(%rbp)
.L449:
	movq	16(%rbp), %rax
	movq	(%rax), %rax
	movl	8(%rax), %eax
	cmpl	%eax, -12(%rbp)
	jge	.L450
	movq	16(%rbp), %rcx
	movl	-12(%rbp), %eax
	movslq	%eax, %rdx
	movq	%rdx, %rax
	addq	%rax, %rax
	addq	%rdx, %rax
	salq	$5, %rax
	addq	%rcx, %rax
	addq	$17852, %rax
	movl	(%rax), %eax
	addl	$7, %eax
	sarl	$3, %eax
	movl	%eax, -16(%rbp)
	movq	16(%rbp), %rcx
	movl	-12(%rbp), %eax
	movslq	%eax, %rdx
	movq	%rdx, %rax
	addq	%rax, %rax
	addq	%rdx, %rax
	salq	$5, %rax
	addq	%rcx, %rax
	addq	$17856, %rax
	movl	(%rax), %eax
	addl	$7, %eax
	sarl	$3, %eax
	movl	%eax, -20(%rbp)
	movl	$0, -8(%rbp)
.L448:
	movl	-8(%rbp), %eax
	cmpl	-20(%rbp), %eax
	jge	.L445
	movl	$0, -4(%rbp)
.L447:
	movl	-4(%rbp), %eax
	cmpl	-16(%rbp), %eax
	jge	.L446
	movq	16(%rbp), %rcx
	movl	-12(%rbp), %eax
	movslq	%eax, %rdx
	movq	%rdx, %rax
	addq	%rax, %rax
	addq	%rdx, %rax
	salq	$5, %rax
	addq	%rcx, %rax
	addq	$17904, %rax
	movq	(%rax), %rcx
	movq	16(%rbp), %r8
	movl	-12(%rbp), %eax
	movslq	%eax, %rdx
	movq	%rdx, %rax
	addq	%rax, %rax
	addq	%rdx, %rax
	salq	$5, %rax
	addq	%r8, %rax
	addq	$17912, %rax
	movl	(%rax), %eax
	imull	-8(%rbp), %eax
	movl	-4(%rbp), %edx
	addl	%edx, %eax
	sall	$6, %eax
	cltq
	addq	%rax, %rax
	addq	%rcx, %rax
	movq	%rax, -32(%rbp)
	movq	16(%rbp), %rcx
	movl	-12(%rbp), %eax
	movslq	%eax, %rdx
	movq	%rdx, %rax
	addq	%rax, %rax
	addq	%rdx, %rax
	salq	$5, %rax
	addq	%rcx, %rax
	addq	$17836, %rax
	movl	(%rax), %eax
	cltq
	addq	$210, %rax
	salq	$6, %rax
	movq	%rax, %rdx
	movq	16(%rbp), %rax
	addq	%rdx, %rax
	leaq	8(%rax), %rdx
	movq	-32(%rbp), %rax
	movq	%rax, %rcx
	call	_ZL21stbi__jpeg_dequantizePsPh
	movq	16(%rbp), %rax
	movq	18280(%rax), %r9
	movq	16(%rbp), %rcx
	movl	-12(%rbp), %eax
	movslq	%eax, %rdx
	movq	%rdx, %rax
	addq	%rax, %rax
	addq	%rdx, %rax
	salq	$5, %rax
	addq	%rcx, %rax
	addq	$17860, %rax
	movl	(%rax), %ecx
	movq	16(%rbp), %r8
	movl	-12(%rbp), %eax
	movslq	%eax, %rdx
	movq	%rdx, %rax
	addq	%rax, %rax
	addq	%rdx, %rax
	salq	$5, %rax
	addq	%r8, %rax
	addq	$17872, %rax
	movq	(%rax), %r8
	movq	16(%rbp), %r10
	movl	-12(%rbp), %eax
	movslq	%eax, %rdx
	movq	%rdx, %rax
	addq	%rax, %rax
	addq	%rdx, %rax
	salq	$5, %rax
	addq	%r10, %rax
	addq	$17860, %rax
	movl	(%rax), %eax
	imull	-8(%rbp), %eax
	sall	$3, %eax
	movslq	%eax, %rdx
	movl	-4(%rbp), %eax
	sall	$3, %eax
	cltq
	addq	%rdx, %rax
	addq	%r8, %rax
	movq	-32(%rbp), %rdx
	movq	%rdx, %r8
	movl	%ecx, %edx
	movq	%rax, %rcx
	call	*%r9
	addl	$1, -4(%rbp)
	jmp	.L447
.L446:
	addl	$1, -8(%rbp)
	jmp	.L448
.L445:
	addl	$1, -12(%rbp)
	jmp	.L449
.L450:
	nop
	addq	$64, %rsp
	popq	%rbp
	ret
	.seh_endproc
	.section .rdata,"dr"
.LC16:
	.ascii "expected marker\0"
.LC17:
	.ascii "bad DRI len\0"
.LC18:
	.ascii "bad DQT type\0"
.LC19:
	.ascii "bad DQT table\0"
.LC20:
	.ascii "bad DHT header\0"
	.text
	.def	_ZL20stbi__process_markerP10stbi__jpegi;	.scl	3;	.type	32;	.endef
	.seh_proc	_ZL20stbi__process_markerP10stbi__jpegi
_ZL20stbi__process_markerP10stbi__jpegi:
	pushq	%rbp
	.seh_pushreg	%rbp
	pushq	%rbx
	.seh_pushreg	%rbx
	subq	$152, %rsp
	.seh_stackalloc	152
	leaq	128(%rsp), %rbp
	.seh_setframe	%rbp, 128
	.seh_endprologue
	movq	%rcx, 48(%rbp)
	movl	%edx, 56(%rbp)
	cmpl	$219, 56(%rbp)
	je	.L452
	cmpl	$219, 56(%rbp)
	jg	.L453
	cmpl	$196, 56(%rbp)
	je	.L454
	jmp	.L455
.L453:
	cmpl	$221, 56(%rbp)
	je	.L456
	cmpl	$255, 56(%rbp)
	jne	.L455
	leaq	.LC16(%rip), %rcx
	call	_ZL9stbi__errPKc
	jmp	.L457
.L456:
	movq	48(%rbp), %rax
	movq	(%rax), %rax
	movq	%rax, %rcx
	call	_ZL13stbi__get16beP13stbi__context
	cmpl	$4, %eax
	setne	%al
	testb	%al, %al
	je	.L458
	leaq	.LC17(%rip), %rcx
	call	_ZL9stbi__errPKc
	jmp	.L457
.L458:
	movq	48(%rbp), %rax
	movq	(%rax), %rax
	movq	%rax, %rcx
	call	_ZL13stbi__get16beP13stbi__context
	movl	%eax, %edx
	movq	48(%rbp), %rax
	movl	%edx, 18268(%rax)
	movl	$1, %eax
	jmp	.L457
.L452:
	movq	48(%rbp), %rax
	movq	(%rax), %rax
	movq	%rax, %rcx
	call	_ZL13stbi__get16beP13stbi__context
	subl	$2, %eax
	movl	%eax, 12(%rbp)
.L464:
	cmpl	$0, 12(%rbp)
	jle	.L459
	movq	48(%rbp), %rax
	movq	(%rax), %rax
	movq	%rax, %rcx
	call	_ZL10stbi__get8P13stbi__context
	movzbl	%al, %eax
	movl	%eax, -12(%rbp)
	movl	-12(%rbp), %eax
	sarl	$4, %eax
	movl	%eax, -16(%rbp)
	movl	-12(%rbp), %eax
	andl	$15, %eax
	movl	%eax, -20(%rbp)
	cmpl	$0, -16(%rbp)
	je	.L460
	leaq	.LC18(%rip), %rcx
	call	_ZL9stbi__errPKc
	jmp	.L457
.L460:
	cmpl	$3, -20(%rbp)
	jle	.L461
	leaq	.LC19(%rip), %rcx
	call	_ZL9stbi__errPKc
	jmp	.L457
.L461:
	movl	$0, 8(%rbp)
.L463:
	cmpl	$63, 8(%rbp)
	jg	.L462
	movq	48(%rbp), %rax
	movq	(%rax), %rdx
	movl	8(%rbp), %eax
	cltq
	leaq	_ZL19stbi__jpeg_dezigzag(%rip), %rcx
	movzbl	(%rax,%rcx), %eax
	movzbl	%al, %ebx
	movq	%rdx, %rcx
	call	_ZL10stbi__get8P13stbi__context
	movl	%eax, %ecx
	movq	48(%rbp), %r8
	movslq	%ebx, %rax
	movl	-20(%rbp), %edx
	movslq	%edx, %rdx
	salq	$6, %rdx
	addq	%r8, %rdx
	addq	%rdx, %rax
	addq	$13448, %rax
	movb	%cl, (%rax)
	addl	$1, 8(%rbp)
	jmp	.L463
.L462:
	subl	$65, 12(%rbp)
	jmp	.L464
.L459:
	cmpl	$0, 12(%rbp)
	sete	%al
	movzbl	%al, %eax
	jmp	.L457
.L454:
	movq	48(%rbp), %rax
	movq	(%rax), %rax
	movq	%rax, %rcx
	call	_ZL13stbi__get16beP13stbi__context
	subl	$2, %eax
	movl	%eax, 12(%rbp)
.L478:
	cmpl	$0, 12(%rbp)
	jle	.L465
	movl	$0, -8(%rbp)
	movq	48(%rbp), %rax
	movq	(%rax), %rax
	movq	%rax, %rcx
	call	_ZL10stbi__get8P13stbi__context
	movzbl	%al, %eax
	movl	%eax, -24(%rbp)
	movl	-24(%rbp), %eax
	sarl	$4, %eax
	movl	%eax, -28(%rbp)
	movl	-24(%rbp), %eax
	andl	$15, %eax
	movl	%eax, -32(%rbp)
	cmpl	$1, -28(%rbp)
	jg	.L466
	cmpl	$3, -32(%rbp)
	jle	.L467
.L466:
	leaq	.LC20(%rip), %rcx
	call	_ZL9stbi__errPKc
	jmp	.L457
.L467:
	movl	$0, -4(%rbp)
.L470:
	cmpl	$15, -4(%rbp)
	jg	.L469
	movq	48(%rbp), %rax
	movq	(%rax), %rax
	movq	%rax, %rcx
	call	_ZL10stbi__get8P13stbi__context
	movzbl	%al, %edx
	movl	-4(%rbp), %eax
	cltq
	movl	%edx, -96(%rbp,%rax,4)
	movl	-4(%rbp), %eax
	cltq
	movl	-96(%rbp,%rax,4), %eax
	addl	%eax, -8(%rbp)
	addl	$1, -4(%rbp)
	jmp	.L470
.L469:
	subl	$17, 12(%rbp)
	cmpl	$0, -28(%rbp)
	jne	.L471
	movq	48(%rbp), %rax
	leaq	8(%rax), %rdx
	movl	-32(%rbp), %eax
	cltq
	imulq	$1680, %rax, %rax
	leaq	(%rdx,%rax), %rcx
	leaq	-96(%rbp), %rax
	movq	%rax, %rdx
	call	_ZL19stbi__build_huffmanP13stbi__huffmanPi
	testl	%eax, %eax
	sete	%al
	testb	%al, %al
	je	.L472
	movl	$0, %eax
	jmp	.L457
.L472:
	movl	-32(%rbp), %eax
	cltq
	imulq	$1680, %rax, %rax
	leaq	1024(%rax), %rdx
	movq	48(%rbp), %rax
	addq	%rdx, %rax
	addq	$8, %rax
	movq	%rax, 0(%rbp)
	jmp	.L473
.L471:
	movq	48(%rbp), %rax
	leaq	6728(%rax), %rdx
	movl	-32(%rbp), %eax
	cltq
	imulq	$1680, %rax, %rax
	leaq	(%rdx,%rax), %rcx
	leaq	-96(%rbp), %rax
	movq	%rax, %rdx
	call	_ZL19stbi__build_huffmanP13stbi__huffmanPi
	testl	%eax, %eax
	sete	%al
	testb	%al, %al
	je	.L474
	movl	$0, %eax
	jmp	.L457
.L474:
	movl	-32(%rbp), %eax
	cltq
	imulq	$1680, %rax, %rax
	leaq	7744(%rax), %rdx
	movq	48(%rbp), %rax
	addq	%rdx, %rax
	addq	$8, %rax
	movq	%rax, 0(%rbp)
.L473:
	movl	$0, -4(%rbp)
.L476:
	movl	-4(%rbp), %eax
	cmpl	-8(%rbp), %eax
	jge	.L475
	movq	48(%rbp), %rax
	movq	(%rax), %rax
	movl	-4(%rbp), %edx
	movslq	%edx, %rdx
	movq	0(%rbp), %rcx
	leaq	(%rdx,%rcx), %rbx
	movq	%rax, %rcx
	call	_ZL10stbi__get8P13stbi__context
	movb	%al, (%rbx)
	addl	$1, -4(%rbp)
	jmp	.L476
.L475:
	cmpl	$0, -28(%rbp)
	je	.L477
	movq	48(%rbp), %rax
	leaq	6728(%rax), %rdx
	movl	-32(%rbp), %eax
	cltq
	imulq	$1680, %rax, %rax
	addq	%rax, %rdx
	movl	-32(%rbp), %eax
	cltq
	salq	$10, %rax
	leaq	13696(%rax), %rcx
	movq	48(%rbp), %rax
	addq	%rcx, %rax
	addq	$8, %rax
	movq	%rax, %rcx
	call	_ZL19stbi__build_fast_acPsP13stbi__huffman
.L477:
	movl	-8(%rbp), %eax
	subl	%eax, 12(%rbp)
	jmp	.L478
.L465:
	cmpl	$0, 12(%rbp)
	sete	%al
	movzbl	%al, %eax
	jmp	.L457
.L455:
	cmpl	$223, 56(%rbp)
	jle	.L479
	cmpl	$239, 56(%rbp)
	jle	.L480
.L479:
	cmpl	$254, 56(%rbp)
	jne	.L481
.L480:
	movq	48(%rbp), %rax
	movq	(%rax), %rax
	movq	%rax, %rcx
	call	_ZL13stbi__get16beP13stbi__context
	leal	-2(%rax), %edx
	movq	48(%rbp), %rax
	movq	(%rax), %rax
	movq	%rax, %rcx
	call	_ZL10stbi__skipP13stbi__contexti
	movl	$1, %eax
	jmp	.L457
.L481:
	movl	$0, %eax
.L457:
	addq	$152, %rsp
	popq	%rbx
	popq	%rbp
	ret
	.seh_endproc
	.section .rdata,"dr"
.LC21:
	.ascii "bad SOS component count\0"
.LC22:
	.ascii "bad SOS len\0"
.LC23:
	.ascii "bad DC huff\0"
.LC24:
	.ascii "bad AC huff\0"
.LC25:
	.ascii "bad SOS\0"
	.text
	.def	_ZL25stbi__process_scan_headerP10stbi__jpeg;	.scl	3;	.type	32;	.endef
	.seh_proc	_ZL25stbi__process_scan_headerP10stbi__jpeg
_ZL25stbi__process_scan_headerP10stbi__jpeg:
	pushq	%rbp
	.seh_pushreg	%rbp
	movq	%rsp, %rbp
	.seh_setframe	%rbp, 0
	subq	$64, %rsp
	.seh_stackalloc	64
	.seh_endprologue
	movq	%rcx, 16(%rbp)
	movq	16(%rbp), %rax
	movq	(%rax), %rax
	movq	%rax, %rcx
	call	_ZL13stbi__get16beP13stbi__context
	movl	%eax, -12(%rbp)
	movq	16(%rbp), %rax
	movq	(%rax), %rax
	movq	%rax, %rcx
	call	_ZL10stbi__get8P13stbi__context
	movzbl	%al, %eax
	movq	16(%rbp), %rdx
	movl	%eax, 18248(%rdx)
	movq	16(%rbp), %rax
	movl	18248(%rax), %eax
	testl	%eax, %eax
	jle	.L483
	movq	16(%rbp), %rax
	movl	18248(%rax), %eax
	cmpl	$4, %eax
	jg	.L483
	movq	16(%rbp), %rax
	movl	18248(%rax), %edx
	movq	16(%rbp), %rax
	movq	(%rax), %rax
	movl	8(%rax), %eax
	cmpl	%eax, %edx
	jle	.L484
.L483:
	leaq	.LC21(%rip), %rcx
	call	_ZL9stbi__errPKc
	jmp	.L485
.L484:
	movq	16(%rbp), %rax
	movl	18248(%rax), %eax
	addl	$3, %eax
	addl	%eax, %eax
	cmpl	%eax, -12(%rbp)
	je	.L486
	leaq	.LC22(%rip), %rcx
	call	_ZL9stbi__errPKc
	jmp	.L485
.L486:
	movl	$0, -4(%rbp)
.L494:
	movq	16(%rbp), %rax
	movl	18248(%rax), %eax
	cmpl	%eax, -4(%rbp)
	jge	.L487
	movq	16(%rbp), %rax
	movq	(%rax), %rax
	movq	%rax, %rcx
	call	_ZL10stbi__get8P13stbi__context
	movzbl	%al, %eax
	movl	%eax, -16(%rbp)
	movq	16(%rbp), %rax
	movq	(%rax), %rax
	movq	%rax, %rcx
	call	_ZL10stbi__get8P13stbi__context
	movzbl	%al, %eax
	movl	%eax, -20(%rbp)
	movl	$0, -8(%rbp)
.L490:
	movq	16(%rbp), %rax
	movq	(%rax), %rax
	movl	8(%rax), %eax
	cmpl	%eax, -8(%rbp)
	jge	.L488
	movq	16(%rbp), %rcx
	movl	-8(%rbp), %eax
	movslq	%eax, %rdx
	movq	%rdx, %rax
	addq	%rax, %rax
	addq	%rdx, %rax
	salq	$5, %rax
	addq	%rcx, %rax
	addq	$17824, %rax
	movl	(%rax), %eax
	cmpl	%eax, -16(%rbp)
	je	.L501
	addl	$1, -8(%rbp)
	jmp	.L490
.L501:
	nop
.L488:
	movq	16(%rbp), %rax
	movq	(%rax), %rax
	movl	8(%rax), %eax
	cmpl	%eax, -8(%rbp)
	jne	.L491
	movl	$0, %eax
	jmp	.L485
.L491:
	movl	-20(%rbp), %eax
	sarl	$4, %eax
	movl	%eax, %ecx
	movq	16(%rbp), %r8
	movl	-8(%rbp), %eax
	movslq	%eax, %rdx
	movq	%rdx, %rax
	addq	%rax, %rax
	addq	%rdx, %rax
	salq	$5, %rax
	addq	%r8, %rax
	addq	$17840, %rax
	movl	%ecx, (%rax)
	movq	16(%rbp), %rcx
	movl	-8(%rbp), %eax
	movslq	%eax, %rdx
	movq	%rdx, %rax
	addq	%rax, %rax
	addq	%rdx, %rax
	salq	$5, %rax
	addq	%rcx, %rax
	addq	$17840, %rax
	movl	(%rax), %eax
	cmpl	$3, %eax
	jle	.L492
	leaq	.LC23(%rip), %rcx
	call	_ZL9stbi__errPKc
	jmp	.L485
.L492:
	movl	-20(%rbp), %eax
	andl	$15, %eax
	movl	%eax, %ecx
	movq	16(%rbp), %r8
	movl	-8(%rbp), %eax
	movslq	%eax, %rdx
	movq	%rdx, %rax
	addq	%rax, %rax
	addq	%rdx, %rax
	salq	$5, %rax
	addq	%r8, %rax
	addq	$17844, %rax
	movl	%ecx, (%rax)
	movq	16(%rbp), %rcx
	movl	-8(%rbp), %eax
	movslq	%eax, %rdx
	movq	%rdx, %rax
	addq	%rax, %rax
	addq	%rdx, %rax
	salq	$5, %rax
	addq	%rcx, %rax
	addq	$17844, %rax
	movl	(%rax), %eax
	cmpl	$3, %eax
	jle	.L493
	leaq	.LC24(%rip), %rcx
	call	_ZL9stbi__errPKc
	jmp	.L485
.L493:
	movq	16(%rbp), %rax
	movl	-4(%rbp), %edx
	movslq	%edx, %rdx
	addq	$4560, %rdx
	movl	-8(%rbp), %ecx
	movl	%ecx, 12(%rax,%rdx,4)
	addl	$1, -4(%rbp)
	jmp	.L494
.L487:
	movq	16(%rbp), %rax
	movq	(%rax), %rax
	movq	%rax, %rcx
	call	_ZL10stbi__get8P13stbi__context
	movzbl	%al, %eax
	movq	16(%rbp), %rdx
	movl	%eax, 18228(%rdx)
	movq	16(%rbp), %rax
	movq	(%rax), %rax
	movq	%rax, %rcx
	call	_ZL10stbi__get8P13stbi__context
	movzbl	%al, %eax
	movq	16(%rbp), %rdx
	movl	%eax, 18232(%rdx)
	movq	16(%rbp), %rax
	movq	(%rax), %rax
	movq	%rax, %rcx
	call	_ZL10stbi__get8P13stbi__context
	movzbl	%al, %eax
	movl	%eax, -24(%rbp)
	movl	-24(%rbp), %eax
	sarl	$4, %eax
	movl	%eax, %edx
	movq	16(%rbp), %rax
	movl	%edx, 18236(%rax)
	movl	-24(%rbp), %eax
	andl	$15, %eax
	movl	%eax, %edx
	movq	16(%rbp), %rax
	movl	%edx, 18240(%rax)
	movq	16(%rbp), %rax
	movl	18224(%rax), %eax
	testl	%eax, %eax
	je	.L495
	movq	16(%rbp), %rax
	movl	18228(%rax), %eax
	cmpl	$63, %eax
	jg	.L496
	movq	16(%rbp), %rax
	movl	18232(%rax), %eax
	cmpl	$63, %eax
	jg	.L496
	movq	16(%rbp), %rax
	movl	18228(%rax), %edx
	movq	16(%rbp), %rax
	movl	18232(%rax), %eax
	cmpl	%eax, %edx
	jg	.L496
	movq	16(%rbp), %rax
	movl	18236(%rax), %eax
	cmpl	$13, %eax
	jg	.L496
	movq	16(%rbp), %rax
	movl	18240(%rax), %eax
	cmpl	$13, %eax
	jle	.L497
.L496:
	leaq	.LC25(%rip), %rcx
	call	_ZL9stbi__errPKc
	jmp	.L485
.L495:
	movq	16(%rbp), %rax
	movl	18228(%rax), %eax
	testl	%eax, %eax
	je	.L498
	leaq	.LC25(%rip), %rcx
	call	_ZL9stbi__errPKc
	jmp	.L485
.L498:
	movq	16(%rbp), %rax
	movl	18236(%rax), %eax
	testl	%eax, %eax
	jne	.L499
	movq	16(%rbp), %rax
	movl	18240(%rax), %eax
	testl	%eax, %eax
	je	.L500
.L499:
	leaq	.LC25(%rip), %rcx
	call	_ZL9stbi__errPKc
	jmp	.L485
.L500:
	movq	16(%rbp), %rax
	movl	$63, 18232(%rax)
.L497:
	movl	$1, %eax
.L485:
	addq	$64, %rsp
	popq	%rbp
	ret
	.seh_endproc
	.section .rdata,"dr"
.LC26:
	.ascii "bad SOF len\0"
.LC27:
	.ascii "only 8-bit\0"
.LC28:
	.ascii "no header height\0"
.LC29:
	.ascii "0 width\0"
.LC30:
	.ascii "bad component count\0"
.LC31:
	.ascii "bad component ID\0"
.LC32:
	.ascii "bad H\0"
.LC33:
	.ascii "bad V\0"
.LC34:
	.ascii "bad TQ\0"
.LC35:
	.ascii "too large\0"
	.text
	.def	_ZL26stbi__process_frame_headerP10stbi__jpegi;	.scl	3;	.type	32;	.endef
	.seh_proc	_ZL26stbi__process_frame_headerP10stbi__jpegi
_ZL26stbi__process_frame_headerP10stbi__jpegi:
	pushq	%rbp
	.seh_pushreg	%rbp
	movq	%rsp, %rbp
	.seh_setframe	%rbp, 0
	subq	$80, %rsp
	.seh_stackalloc	80
	.seh_endprologue
	movq	%rcx, 16(%rbp)
	movl	%edx, 24(%rbp)
	movq	16(%rbp), %rax
	movq	(%rax), %rax
	movq	%rax, -24(%rbp)
	movl	$1, -8(%rbp)
	movl	$1, -12(%rbp)
	movq	-24(%rbp), %rax
	movq	%rax, %rcx
	call	_ZL13stbi__get16beP13stbi__context
	movl	%eax, -28(%rbp)
	cmpl	$10, -28(%rbp)
	jg	.L503
	leaq	.LC26(%rip), %rcx
	call	_ZL9stbi__errPKc
	jmp	.L504
.L503:
	movq	-24(%rbp), %rax
	movq	%rax, %rcx
	call	_ZL10stbi__get8P13stbi__context
	movzbl	%al, %eax
	movl	%eax, -32(%rbp)
	cmpl	$8, -32(%rbp)
	je	.L505
	leaq	.LC27(%rip), %rcx
	call	_ZL9stbi__errPKc
	jmp	.L504
.L505:
	movq	-24(%rbp), %rax
	movq	%rax, %rcx
	call	_ZL13stbi__get16beP13stbi__context
	movl	%eax, %edx
	movq	-24(%rbp), %rax
	movl	%edx, 4(%rax)
	movq	-24(%rbp), %rax
	movl	4(%rax), %eax
	testl	%eax, %eax
	jne	.L506
	leaq	.LC28(%rip), %rcx
	call	_ZL9stbi__errPKc
	jmp	.L504
.L506:
	movq	-24(%rbp), %rax
	movq	%rax, %rcx
	call	_ZL13stbi__get16beP13stbi__context
	movl	%eax, %edx
	movq	-24(%rbp), %rax
	movl	%edx, (%rax)
	movq	-24(%rbp), %rax
	movl	(%rax), %eax
	testl	%eax, %eax
	jne	.L507
	leaq	.LC29(%rip), %rcx
	call	_ZL9stbi__errPKc
	jmp	.L504
.L507:
	movq	-24(%rbp), %rax
	movq	%rax, %rcx
	call	_ZL10stbi__get8P13stbi__context
	movzbl	%al, %eax
	movl	%eax, -36(%rbp)
	cmpl	$3, -36(%rbp)
	je	.L508
	cmpl	$1, -36(%rbp)
	je	.L508
	leaq	.LC30(%rip), %rcx
	call	_ZL9stbi__errPKc
	jmp	.L504
.L508:
	movq	-24(%rbp), %rax
	movl	-36(%rbp), %edx
	movl	%edx, 8(%rax)
	movl	$0, -4(%rbp)
.L510:
	movl	-4(%rbp), %eax
	cmpl	-36(%rbp), %eax
	jge	.L509
	movq	16(%rbp), %rcx
	movl	-4(%rbp), %eax
	movslq	%eax, %rdx
	movq	%rdx, %rax
	addq	%rax, %rax
	addq	%rdx, %rax
	salq	$5, %rax
	addq	%rcx, %rax
	addq	$17872, %rax
	movq	$0, (%rax)
	movq	16(%rbp), %rcx
	movl	-4(%rbp), %eax
	movslq	%eax, %rdx
	movq	%rdx, %rax
	addq	%rax, %rax
	addq	%rdx, %rax
	salq	$5, %rax
	addq	%rcx, %rax
	addq	$17896, %rax
	movq	$0, (%rax)
	addl	$1, -4(%rbp)
	jmp	.L510
.L509:
	movq	-24(%rbp), %rax
	movl	8(%rax), %edx
	movl	%edx, %eax
	addl	%eax, %eax
	addl	%edx, %eax
	addl	$8, %eax
	cmpl	%eax, -28(%rbp)
	je	.L511
	leaq	.LC26(%rip), %rcx
	call	_ZL9stbi__errPKc
	jmp	.L504
.L511:
	movl	$0, -4(%rbp)
.L519:
	movq	-24(%rbp), %rax
	movl	8(%rax), %eax
	cmpl	%eax, -4(%rbp)
	jge	.L512
	movq	-24(%rbp), %rax
	movq	%rax, %rcx
	call	_ZL10stbi__get8P13stbi__context
	movzbl	%al, %ecx
	movq	16(%rbp), %r8
	movl	-4(%rbp), %eax
	movslq	%eax, %rdx
	movq	%rdx, %rax
	addq	%rax, %rax
	addq	%rdx, %rax
	salq	$5, %rax
	addq	%r8, %rax
	addq	$17824, %rax
	movl	%ecx, (%rax)
	movq	16(%rbp), %rcx
	movl	-4(%rbp), %eax
	movslq	%eax, %rdx
	movq	%rdx, %rax
	addq	%rax, %rax
	addq	%rdx, %rax
	salq	$5, %rax
	addq	%rcx, %rax
	addq	$17824, %rax
	movl	(%rax), %edx
	movl	-4(%rbp), %eax
	addl	$1, %eax
	cmpl	%eax, %edx
	je	.L513
	movq	16(%rbp), %rcx
	movl	-4(%rbp), %eax
	movslq	%eax, %rdx
	movq	%rdx, %rax
	addq	%rax, %rax
	addq	%rdx, %rax
	salq	$5, %rax
	addq	%rcx, %rax
	addq	$17824, %rax
	movl	(%rax), %eax
	cmpl	%eax, -4(%rbp)
	je	.L513
	leaq	.LC31(%rip), %rcx
	call	_ZL9stbi__errPKc
	jmp	.L504
.L513:
	movq	-24(%rbp), %rax
	movq	%rax, %rcx
	call	_ZL10stbi__get8P13stbi__context
	movzbl	%al, %eax
	movl	%eax, -40(%rbp)
	movl	-40(%rbp), %eax
	sarl	$4, %eax
	movl	%eax, %ecx
	movq	16(%rbp), %r8
	movl	-4(%rbp), %eax
	movslq	%eax, %rdx
	movq	%rdx, %rax
	addq	%rax, %rax
	addq	%rdx, %rax
	salq	$5, %rax
	addq	%r8, %rax
	addq	$17828, %rax
	movl	%ecx, (%rax)
	movq	16(%rbp), %rcx
	movl	-4(%rbp), %eax
	movslq	%eax, %rdx
	movq	%rdx, %rax
	addq	%rax, %rax
	addq	%rdx, %rax
	salq	$5, %rax
	addq	%rcx, %rax
	addq	$17828, %rax
	movl	(%rax), %eax
	testl	%eax, %eax
	je	.L514
	movq	16(%rbp), %rcx
	movl	-4(%rbp), %eax
	movslq	%eax, %rdx
	movq	%rdx, %rax
	addq	%rax, %rax
	addq	%rdx, %rax
	salq	$5, %rax
	addq	%rcx, %rax
	addq	$17828, %rax
	movl	(%rax), %eax
	cmpl	$4, %eax
	jle	.L515
.L514:
	leaq	.LC32(%rip), %rcx
	call	_ZL9stbi__errPKc
	jmp	.L504
.L515:
	movl	-40(%rbp), %eax
	andl	$15, %eax
	movl	%eax, %ecx
	movq	16(%rbp), %r8
	movl	-4(%rbp), %eax
	movslq	%eax, %rdx
	movq	%rdx, %rax
	addq	%rax, %rax
	addq	%rdx, %rax
	salq	$5, %rax
	addq	%r8, %rax
	addq	$17832, %rax
	movl	%ecx, (%rax)
	movq	16(%rbp), %rcx
	movl	-4(%rbp), %eax
	movslq	%eax, %rdx
	movq	%rdx, %rax
	addq	%rax, %rax
	addq	%rdx, %rax
	salq	$5, %rax
	addq	%rcx, %rax
	addq	$17832, %rax
	movl	(%rax), %eax
	testl	%eax, %eax
	je	.L516
	movq	16(%rbp), %rcx
	movl	-4(%rbp), %eax
	movslq	%eax, %rdx
	movq	%rdx, %rax
	addq	%rax, %rax
	addq	%rdx, %rax
	salq	$5, %rax
	addq	%rcx, %rax
	addq	$17832, %rax
	movl	(%rax), %eax
	cmpl	$4, %eax
	jle	.L517
.L516:
	leaq	.LC33(%rip), %rcx
	call	_ZL9stbi__errPKc
	jmp	.L504
.L517:
	movq	-24(%rbp), %rax
	movq	%rax, %rcx
	call	_ZL10stbi__get8P13stbi__context
	movzbl	%al, %ecx
	movq	16(%rbp), %r8
	movl	-4(%rbp), %eax
	movslq	%eax, %rdx
	movq	%rdx, %rax
	addq	%rax, %rax
	addq	%rdx, %rax
	salq	$5, %rax
	addq	%r8, %rax
	addq	$17836, %rax
	movl	%ecx, (%rax)
	movq	16(%rbp), %rcx
	movl	-4(%rbp), %eax
	movslq	%eax, %rdx
	movq	%rdx, %rax
	addq	%rax, %rax
	addq	%rdx, %rax
	salq	$5, %rax
	addq	%rcx, %rax
	addq	$17836, %rax
	movl	(%rax), %eax
	cmpl	$3, %eax
	jle	.L518
	leaq	.LC34(%rip), %rcx
	call	_ZL9stbi__errPKc
	jmp	.L504
.L518:
	addl	$1, -4(%rbp)
	jmp	.L519
.L512:
	cmpl	$0, 24(%rbp)
	je	.L520
	movl	$1, %eax
	jmp	.L504
.L520:
	movq	-24(%rbp), %rax
	movl	(%rax), %ecx
	movl	$1073741824, %eax
	movl	$0, %edx
	divl	%ecx
	movl	%eax, %edx
	movq	-24(%rbp), %rax
	movl	8(%rax), %eax
	movl	%eax, %ecx
	movl	%edx, %eax
	movl	$0, %edx
	divl	%ecx
	movl	%eax, %edx
	movq	-24(%rbp), %rax
	movl	4(%rax), %eax
	cmpl	%eax, %edx
	jnb	.L521
	leaq	.LC35(%rip), %rcx
	call	_ZL9stbi__errPKc
	jmp	.L504
.L521:
	movl	$0, -4(%rbp)
.L525:
	movq	-24(%rbp), %rax
	movl	8(%rax), %eax
	cmpl	%eax, -4(%rbp)
	jge	.L522
	movq	16(%rbp), %rcx
	movl	-4(%rbp), %eax
	movslq	%eax, %rdx
	movq	%rdx, %rax
	addq	%rax, %rax
	addq	%rdx, %rax
	salq	$5, %rax
	addq	%rcx, %rax
	addq	$17828, %rax
	movl	(%rax), %eax
	cmpl	%eax, -8(%rbp)
	jge	.L523
	movq	16(%rbp), %rcx
	movl	-4(%rbp), %eax
	movslq	%eax, %rdx
	movq	%rdx, %rax
	addq	%rax, %rax
	addq	%rdx, %rax
	salq	$5, %rax
	addq	%rcx, %rax
	addq	$17828, %rax
	movl	(%rax), %eax
	movl	%eax, -8(%rbp)
.L523:
	movq	16(%rbp), %rcx
	movl	-4(%rbp), %eax
	movslq	%eax, %rdx
	movq	%rdx, %rax
	addq	%rax, %rax
	addq	%rdx, %rax
	salq	$5, %rax
	addq	%rcx, %rax
	addq	$17832, %rax
	movl	(%rax), %eax
	cmpl	%eax, -12(%rbp)
	jge	.L524
	movq	16(%rbp), %rcx
	movl	-4(%rbp), %eax
	movslq	%eax, %rdx
	movq	%rdx, %rax
	addq	%rax, %rax
	addq	%rdx, %rax
	salq	$5, %rax
	addq	%rcx, %rax
	addq	$17832, %rax
	movl	(%rax), %eax
	movl	%eax, -12(%rbp)
.L524:
	addl	$1, -4(%rbp)
	jmp	.L525
.L522:
	movq	16(%rbp), %rax
	movl	-8(%rbp), %edx
	movl	%edx, 17800(%rax)
	movq	16(%rbp), %rax
	movl	-12(%rbp), %edx
	movl	%edx, 17804(%rax)
	movl	-8(%rbp), %eax
	leal	0(,%rax,8), %edx
	movq	16(%rbp), %rax
	movl	%edx, 17816(%rax)
	movl	-12(%rbp), %eax
	leal	0(,%rax,8), %edx
	movq	16(%rbp), %rax
	movl	%edx, 17820(%rax)
	movq	-24(%rbp), %rax
	movl	(%rax), %edx
	movq	16(%rbp), %rax
	movl	17816(%rax), %eax
	addl	%edx, %eax
	subl	$1, %eax
	movq	16(%rbp), %rdx
	movl	17816(%rdx), %edx
	movl	%edx, %ecx
	movl	$0, %edx
	divl	%ecx
	movl	%eax, %edx
	movq	16(%rbp), %rax
	movl	%edx, 17808(%rax)
	movq	-24(%rbp), %rax
	movl	4(%rax), %edx
	movq	16(%rbp), %rax
	movl	17820(%rax), %eax
	addl	%edx, %eax
	subl	$1, %eax
	movq	16(%rbp), %rdx
	movl	17820(%rdx), %edx
	movl	%edx, %ecx
	movl	$0, %edx
	divl	%ecx
	movl	%eax, %edx
	movq	16(%rbp), %rax
	movl	%edx, 17812(%rax)
	movl	$0, -4(%rbp)
.L532:
	movq	-24(%rbp), %rax
	movl	8(%rax), %eax
	cmpl	%eax, -4(%rbp)
	jge	.L526
	movq	-24(%rbp), %rax
	movl	(%rax), %ecx
	movq	16(%rbp), %r8
	movl	-4(%rbp), %eax
	movslq	%eax, %rdx
	movq	%rdx, %rax
	addq	%rax, %rax
	addq	%rdx, %rax
	salq	$5, %rax
	addq	%r8, %rax
	addq	$17828, %rax
	movl	(%rax), %eax
	imull	%ecx, %eax
	movl	-8(%rbp), %edx
	addl	%edx, %eax
	subl	$1, %eax
	movl	-8(%rbp), %ecx
	movl	$0, %edx
	divl	%ecx
	movl	%eax, %r8d
	movq	16(%rbp), %rcx
	movl	-4(%rbp), %eax
	movslq	%eax, %rdx
	movq	%rdx, %rax
	addq	%rax, %rax
	addq	%rdx, %rax
	salq	$5, %rax
	addq	%rcx, %rax
	addq	$17852, %rax
	movl	%r8d, (%rax)
	movq	-24(%rbp), %rax
	movl	4(%rax), %ecx
	movq	16(%rbp), %r8
	movl	-4(%rbp), %eax
	movslq	%eax, %rdx
	movq	%rdx, %rax
	addq	%rax, %rax
	addq	%rdx, %rax
	salq	$5, %rax
	addq	%r8, %rax
	addq	$17832, %rax
	movl	(%rax), %eax
	imull	%ecx, %eax
	movl	-12(%rbp), %edx
	addl	%edx, %eax
	subl	$1, %eax
	movl	-12(%rbp), %ecx
	movl	$0, %edx
	divl	%ecx
	movl	%eax, %r8d
	movq	16(%rbp), %rcx
	movl	-4(%rbp), %eax
	movslq	%eax, %rdx
	movq	%rdx, %rax
	addq	%rax, %rax
	addq	%rdx, %rax
	salq	$5, %rax
	addq	%rcx, %rax
	addq	$17856, %rax
	movl	%r8d, (%rax)
	movq	16(%rbp), %rax
	movl	17808(%rax), %ecx
	movq	16(%rbp), %r8
	movl	-4(%rbp), %eax
	movslq	%eax, %rdx
	movq	%rdx, %rax
	addq	%rax, %rax
	addq	%rdx, %rax
	salq	$5, %rax
	addq	%r8, %rax
	addq	$17828, %rax
	movl	(%rax), %eax
	imull	%ecx, %eax
	leal	0(,%rax,8), %ecx
	movq	16(%rbp), %r8
	movl	-4(%rbp), %eax
	movslq	%eax, %rdx
	movq	%rdx, %rax
	addq	%rax, %rax
	addq	%rdx, %rax
	salq	$5, %rax
	addq	%r8, %rax
	addq	$17860, %rax
	movl	%ecx, (%rax)
	movq	16(%rbp), %rax
	movl	17812(%rax), %ecx
	movq	16(%rbp), %r8
	movl	-4(%rbp), %eax
	movslq	%eax, %rdx
	movq	%rdx, %rax
	addq	%rax, %rax
	addq	%rdx, %rax
	salq	$5, %rax
	addq	%r8, %rax
	addq	$17832, %rax
	movl	(%rax), %eax
	imull	%ecx, %eax
	leal	0(,%rax,8), %ecx
	movq	16(%rbp), %r8
	movl	-4(%rbp), %eax
	movslq	%eax, %rdx
	movq	%rdx, %rax
	addq	%rax, %rax
	addq	%rdx, %rax
	salq	$5, %rax
	addq	%r8, %rax
	addq	$17864, %rax
	movl	%ecx, (%rax)
	movq	16(%rbp), %rcx
	movl	-4(%rbp), %eax
	movslq	%eax, %rdx
	movq	%rdx, %rax
	addq	%rax, %rax
	addq	%rdx, %rax
	salq	$5, %rax
	addq	%rcx, %rax
	addq	$17860, %rax
	movl	(%rax), %ecx
	movq	16(%rbp), %r8
	movl	-4(%rbp), %eax
	movslq	%eax, %rdx
	movq	%rdx, %rax
	addq	%rax, %rax
	addq	%rdx, %rax
	salq	$5, %rax
	addq	%r8, %rax
	addq	$17864, %rax
	movl	(%rax), %eax
	imull	%ecx, %eax
	addl	$15, %eax
	cltq
	movq	%rax, %rcx
	call	_ZL12stbi__mallocy
	movq	%rax, %r8
	movq	16(%rbp), %rcx
	movl	-4(%rbp), %eax
	movslq	%eax, %rdx
	movq	%rdx, %rax
	addq	%rax, %rax
	addq	%rdx, %rax
	salq	$5, %rax
	addq	%rcx, %rax
	addq	$17880, %rax
	movq	%r8, (%rax)
	movq	16(%rbp), %rcx
	movl	-4(%rbp), %eax
	movslq	%eax, %rdx
	movq	%rdx, %rax
	addq	%rax, %rax
	addq	%rdx, %rax
	salq	$5, %rax
	addq	%rcx, %rax
	addq	$17880, %rax
	movq	(%rax), %rax
	testq	%rax, %rax
	jne	.L527
	subl	$1, -4(%rbp)
.L529:
	cmpl	$0, -4(%rbp)
	js	.L528
	movq	16(%rbp), %rcx
	movl	-4(%rbp), %eax
	movslq	%eax, %rdx
	movq	%rdx, %rax
	addq	%rax, %rax
	addq	%rdx, %rax
	salq	$5, %rax
	addq	%rcx, %rax
	addq	$17880, %rax
	movq	(%rax), %rax
	movq	%rax, %rcx
	call	free
	movq	16(%rbp), %rcx
	movl	-4(%rbp), %eax
	movslq	%eax, %rdx
	movq	%rdx, %rax
	addq	%rax, %rax
	addq	%rdx, %rax
	salq	$5, %rax
	addq	%rcx, %rax
	addq	$17872, %rax
	movq	$0, (%rax)
	subl	$1, -4(%rbp)
	jmp	.L529
.L528:
	leaq	.LC6(%rip), %rcx
	call	_ZL9stbi__errPKc
	jmp	.L504
.L527:
	movq	16(%rbp), %rcx
	movl	-4(%rbp), %eax
	movslq	%eax, %rdx
	movq	%rdx, %rax
	addq	%rax, %rax
	addq	%rdx, %rax
	salq	$5, %rax
	addq	%rcx, %rax
	addq	$17880, %rax
	movq	(%rax), %rax
	addq	$15, %rax
	andq	$-16, %rax
	movq	%rax, %r8
	movq	16(%rbp), %rcx
	movl	-4(%rbp), %eax
	movslq	%eax, %rdx
	movq	%rdx, %rax
	addq	%rax, %rax
	addq	%rdx, %rax
	salq	$5, %rax
	addq	%rcx, %rax
	addq	$17872, %rax
	movq	%r8, (%rax)
	movq	16(%rbp), %rcx
	movl	-4(%rbp), %eax
	movslq	%eax, %rdx
	movq	%rdx, %rax
	addq	%rax, %rax
	addq	%rdx, %rax
	salq	$5, %rax
	addq	%rcx, %rax
	addq	$17896, %rax
	movq	$0, (%rax)
	movq	16(%rbp), %rax
	movl	18224(%rax), %eax
	testl	%eax, %eax
	je	.L530
	movq	16(%rbp), %rcx
	movl	-4(%rbp), %eax
	movslq	%eax, %rdx
	movq	%rdx, %rax
	addq	%rax, %rax
	addq	%rdx, %rax
	salq	$5, %rax
	addq	%rcx, %rax
	addq	$17860, %rax
	movl	(%rax), %eax
	addl	$7, %eax
	sarl	$3, %eax
	movl	%eax, %ecx
	movq	16(%rbp), %r8
	movl	-4(%rbp), %eax
	movslq	%eax, %rdx
	movq	%rdx, %rax
	addq	%rax, %rax
	addq	%rdx, %rax
	salq	$5, %rax
	addq	%r8, %rax
	addq	$17912, %rax
	movl	%ecx, (%rax)
	movq	16(%rbp), %rcx
	movl	-4(%rbp), %eax
	movslq	%eax, %rdx
	movq	%rdx, %rax
	addq	%rax, %rax
	addq	%rdx, %rax
	salq	$5, %rax
	addq	%rcx, %rax
	addq	$17864, %rax
	movl	(%rax), %eax
	addl	$7, %eax
	sarl	$3, %eax
	movl	%eax, %ecx
	movq	16(%rbp), %r8
	movl	-4(%rbp), %eax
	movslq	%eax, %rdx
	movq	%rdx, %rax
	addq	%rax, %rax
	addq	%rdx, %rax
	salq	$5, %rax
	addq	%r8, %rax
	addq	$17916, %rax
	movl	%ecx, (%rax)
	movq	16(%rbp), %rcx
	movl	-4(%rbp), %eax
	movslq	%eax, %rdx
	movq	%rdx, %rax
	addq	%rax, %rax
	addq	%rdx, %rax
	salq	$5, %rax
	addq	%rcx, %rax
	addq	$17912, %rax
	movl	(%rax), %ecx
	movq	16(%rbp), %r8
	movl	-4(%rbp), %eax
	movslq	%eax, %rdx
	movq	%rdx, %rax
	addq	%rax, %rax
	addq	%rdx, %rax
	salq	$5, %rax
	addq	%r8, %rax
	addq	$17916, %rax
	movl	(%rax), %eax
	imull	%ecx, %eax
	sall	$6, %eax
	cltq
	addq	%rax, %rax
	addq	$15, %rax
	movq	%rax, %rcx
	call	malloc
	movq	%rax, %r8
	movq	16(%rbp), %rcx
	movl	-4(%rbp), %eax
	movslq	%eax, %rdx
	movq	%rdx, %rax
	addq	%rax, %rax
	addq	%rdx, %rax
	salq	$5, %rax
	addq	%rcx, %rax
	addq	$17888, %rax
	movq	%r8, (%rax)
	movq	16(%rbp), %rcx
	movl	-4(%rbp), %eax
	movslq	%eax, %rdx
	movq	%rdx, %rax
	addq	%rax, %rax
	addq	%rdx, %rax
	salq	$5, %rax
	addq	%rcx, %rax
	addq	$17888, %rax
	movq	(%rax), %rax
	addq	$15, %rax
	andq	$-16, %rax
	movq	%rax, %r8
	movq	16(%rbp), %rcx
	movl	-4(%rbp), %eax
	movslq	%eax, %rdx
	movq	%rdx, %rax
	addq	%rax, %rax
	addq	%rdx, %rax
	salq	$5, %rax
	addq	%rcx, %rax
	addq	$17904, %rax
	movq	%r8, (%rax)
	jmp	.L531
.L530:
	movq	16(%rbp), %rcx
	movl	-4(%rbp), %eax
	movslq	%eax, %rdx
	movq	%rdx, %rax
	addq	%rax, %rax
	addq	%rdx, %rax
	salq	$5, %rax
	addq	%rcx, %rax
	addq	$17904, %rax
	movq	$0, (%rax)
	movq	16(%rbp), %rcx
	movl	-4(%rbp), %eax
	movslq	%eax, %rdx
	movq	%rdx, %rax
	addq	%rax, %rax
	addq	%rdx, %rax
	salq	$5, %rax
	addq	%rcx, %rax
	addq	$17888, %rax
	movq	$0, (%rax)
.L531:
	addl	$1, -4(%rbp)
	jmp	.L532
.L526:
	movl	$1, %eax
.L504:
	addq	$80, %rsp
	popq	%rbp
	ret
	.seh_endproc
	.section .rdata,"dr"
.LC36:
	.ascii "no SOI\0"
.LC37:
	.ascii "no SOF\0"
	.text
	.def	_ZL24stbi__decode_jpeg_headerP10stbi__jpegi;	.scl	3;	.type	32;	.endef
	.seh_proc	_ZL24stbi__decode_jpeg_headerP10stbi__jpegi
_ZL24stbi__decode_jpeg_headerP10stbi__jpegi:
	pushq	%rbp
	.seh_pushreg	%rbp
	movq	%rsp, %rbp
	.seh_setframe	%rbp, 0
	subq	$48, %rsp
	.seh_stackalloc	48
	.seh_endprologue
	movq	%rcx, 16(%rbp)
	movl	%edx, 24(%rbp)
	movq	16(%rbp), %rax
	movb	$-1, 18216(%rax)
	movq	16(%rbp), %rcx
	call	_ZL16stbi__get_markerP10stbi__jpeg
	movzbl	%al, %eax
	movl	%eax, -4(%rbp)
	movl	-4(%rbp), %eax
	cmpl	$216, %eax
	je	.L534
	leaq	.LC36(%rip), %rcx
	call	_ZL9stbi__errPKc
	jmp	.L544
.L534:
	cmpl	$1, 24(%rbp)
	jne	.L536
	movl	$1, %eax
	jmp	.L544
.L536:
	movq	16(%rbp), %rcx
	call	_ZL16stbi__get_markerP10stbi__jpeg
	movzbl	%al, %eax
	movl	%eax, -4(%rbp)
.L542:
	movl	-4(%rbp), %eax
	cmpl	$192, %eax
	je	.L537
	movl	-4(%rbp), %eax
	cmpl	$193, %eax
	je	.L537
	movl	-4(%rbp), %eax
	cmpl	$194, %eax
	je	.L537
	movl	-4(%rbp), %eax
	movl	%eax, %edx
	movq	16(%rbp), %rcx
	call	_ZL20stbi__process_markerP10stbi__jpegi
	testl	%eax, %eax
	sete	%al
	testb	%al, %al
	je	.L538
	movl	$0, %eax
	jmp	.L544
.L538:
	movq	16(%rbp), %rcx
	call	_ZL16stbi__get_markerP10stbi__jpeg
	movzbl	%al, %eax
	movl	%eax, -4(%rbp)
.L541:
	movl	-4(%rbp), %eax
	cmpl	$255, %eax
	jne	.L542
	movq	16(%rbp), %rax
	movq	(%rax), %rax
	movq	%rax, %rcx
	call	_ZL12stbi__at_eofP13stbi__context
	testl	%eax, %eax
	setne	%al
	testb	%al, %al
	je	.L540
	leaq	.LC37(%rip), %rcx
	call	_ZL9stbi__errPKc
	jmp	.L544
.L540:
	movq	16(%rbp), %rcx
	call	_ZL16stbi__get_markerP10stbi__jpeg
	movzbl	%al, %eax
	movl	%eax, -4(%rbp)
	jmp	.L541
.L537:
	movl	-4(%rbp), %eax
	cmpl	$194, %eax
	sete	%al
	movzbl	%al, %eax
	movq	16(%rbp), %rdx
	movl	%eax, 18224(%rdx)
	movl	24(%rbp), %eax
	movl	%eax, %edx
	movq	16(%rbp), %rcx
	call	_ZL26stbi__process_frame_headerP10stbi__jpegi
	testl	%eax, %eax
	sete	%al
	testb	%al, %al
	je	.L543
	movl	$0, %eax
	jmp	.L544
.L543:
	movl	$1, %eax
.L544:
	addq	$48, %rsp
	popq	%rbp
	ret
	.seh_endproc
	.section .rdata,"dr"
.LC38:
	.ascii "junk before marker\0"
	.text
	.def	_ZL23stbi__decode_jpeg_imageP10stbi__jpeg;	.scl	3;	.type	32;	.endef
	.seh_proc	_ZL23stbi__decode_jpeg_imageP10stbi__jpeg
_ZL23stbi__decode_jpeg_imageP10stbi__jpeg:
	pushq	%rbp
	.seh_pushreg	%rbp
	movq	%rsp, %rbp
	.seh_setframe	%rbp, 0
	subq	$48, %rsp
	.seh_stackalloc	48
	.seh_endprologue
	movq	%rcx, 16(%rbp)
	movl	$0, -8(%rbp)
.L547:
	movl	-8(%rbp), %eax
	cmpl	$3, %eax
	jg	.L546
	movl	-8(%rbp), %eax
	movq	16(%rbp), %rcx
	movslq	%eax, %rdx
	movq	%rdx, %rax
	addq	%rax, %rax
	addq	%rdx, %rax
	salq	$5, %rax
	addq	%rcx, %rax
	addq	$17880, %rax
	movq	$0, (%rax)
	movl	-8(%rbp), %eax
	movq	16(%rbp), %rcx
	movslq	%eax, %rdx
	movq	%rdx, %rax
	addq	%rax, %rax
	addq	%rdx, %rax
	salq	$5, %rax
	addq	%rcx, %rax
	addq	$17888, %rax
	movq	$0, (%rax)
	movl	-8(%rbp), %eax
	addl	$1, %eax
	movl	%eax, -8(%rbp)
	jmp	.L547
.L546:
	movq	16(%rbp), %rax
	movl	$0, 18268(%rax)
	movl	$0, %edx
	movq	16(%rbp), %rcx
	call	_ZL24stbi__decode_jpeg_headerP10stbi__jpegi
	testl	%eax, %eax
	sete	%al
	testb	%al, %al
	je	.L548
	movl	$0, %eax
	jmp	.L562
.L548:
	movq	16(%rbp), %rcx
	call	_ZL16stbi__get_markerP10stbi__jpeg
	movzbl	%al, %eax
	movl	%eax, -8(%rbp)
.L560:
	movl	-8(%rbp), %eax
	cmpl	$217, %eax
	je	.L550
	movl	-8(%rbp), %eax
	cmpl	$218, %eax
	jne	.L551
	movq	16(%rbp), %rcx
	call	_ZL25stbi__process_scan_headerP10stbi__jpeg
	testl	%eax, %eax
	sete	%al
	testb	%al, %al
	je	.L552
	movl	$0, %eax
	jmp	.L562
.L552:
	movq	16(%rbp), %rcx
	call	_ZL30stbi__parse_entropy_coded_dataP10stbi__jpeg
	testl	%eax, %eax
	sete	%al
	testb	%al, %al
	je	.L553
	movl	$0, %eax
	jmp	.L562
.L553:
	movq	16(%rbp), %rax
	movzbl	18216(%rax), %eax
	cmpb	$-1, %al
	jne	.L559
.L558:
	movq	16(%rbp), %rax
	movq	(%rax), %rax
	movq	%rax, %rcx
	call	_ZL12stbi__at_eofP13stbi__context
	testl	%eax, %eax
	sete	%al
	testb	%al, %al
	je	.L559
	movq	16(%rbp), %rax
	movq	(%rax), %rax
	movq	%rax, %rcx
	call	_ZL10stbi__get8P13stbi__context
	movzbl	%al, %eax
	movl	%eax, -4(%rbp)
	cmpl	$255, -4(%rbp)
	jne	.L556
	movq	16(%rbp), %rax
	movq	(%rax), %rax
	movq	%rax, %rcx
	call	_ZL10stbi__get8P13stbi__context
	movl	%eax, %edx
	movq	16(%rbp), %rax
	movb	%dl, 18216(%rax)
	jmp	.L559
.L556:
	cmpl	$0, -4(%rbp)
	je	.L558
	leaq	.LC38(%rip), %rcx
	call	_ZL9stbi__errPKc
	jmp	.L562
.L551:
	movl	-8(%rbp), %eax
	movl	%eax, %edx
	movq	16(%rbp), %rcx
	call	_ZL20stbi__process_markerP10stbi__jpegi
	testl	%eax, %eax
	sete	%al
	testb	%al, %al
	je	.L559
	movl	$0, %eax
	jmp	.L562
.L559:
	movq	16(%rbp), %rcx
	call	_ZL16stbi__get_markerP10stbi__jpeg
	movzbl	%al, %eax
	movl	%eax, -8(%rbp)
	jmp	.L560
.L550:
	movq	16(%rbp), %rax
	movl	18224(%rax), %eax
	testl	%eax, %eax
	je	.L561
	movq	16(%rbp), %rcx
	call	_ZL17stbi__jpeg_finishP10stbi__jpeg
.L561:
	movl	$1, %eax
.L562:
	addq	$48, %rsp
	popq	%rbp
	ret
	.seh_endproc
	.def	_ZL14resample_row_1PhS_S_ii;	.scl	3;	.type	32;	.endef
	.seh_proc	_ZL14resample_row_1PhS_S_ii
_ZL14resample_row_1PhS_S_ii:
	pushq	%rbp
	.seh_pushreg	%rbp
	movq	%rsp, %rbp
	.seh_setframe	%rbp, 0
	.seh_endprologue
	movq	%rcx, 16(%rbp)
	movq	%rdx, 24(%rbp)
	movq	%r8, 32(%rbp)
	movl	%r9d, 40(%rbp)
	movq	24(%rbp), %rax
	popq	%rbp
	ret
	.seh_endproc
	.def	_ZL22stbi__resample_row_v_2PhS_S_ii;	.scl	3;	.type	32;	.endef
	.seh_proc	_ZL22stbi__resample_row_v_2PhS_S_ii
_ZL22stbi__resample_row_v_2PhS_S_ii:
	pushq	%rbp
	.seh_pushreg	%rbp
	movq	%rsp, %rbp
	.seh_setframe	%rbp, 0
	subq	$16, %rsp
	.seh_stackalloc	16
	.seh_endprologue
	movq	%rcx, 16(%rbp)
	movq	%rdx, 24(%rbp)
	movq	%r8, 32(%rbp)
	movl	%r9d, 40(%rbp)
	movl	$0, -4(%rbp)
.L567:
	movl	-4(%rbp), %eax
	cmpl	40(%rbp), %eax
	jge	.L566
	movl	-4(%rbp), %eax
	cltq
	movq	24(%rbp), %rdx
	addq	%rdx, %rax
	movzbl	(%rax), %eax
	movzbl	%al, %edx
	movl	%edx, %eax
	addl	%eax, %eax
	addl	%eax, %edx
	movl	-4(%rbp), %eax
	cltq
	movq	32(%rbp), %rcx
	addq	%rcx, %rax
	movzbl	(%rax), %eax
	movzbl	%al, %eax
	addl	%edx, %eax
	addl	$2, %eax
	sarl	$2, %eax
	movl	%eax, %ecx
	movl	-4(%rbp), %eax
	cltq
	movq	16(%rbp), %rdx
	addq	%rdx, %rax
	movl	%ecx, %edx
	movb	%dl, (%rax)
	addl	$1, -4(%rbp)
	jmp	.L567
.L566:
	movq	16(%rbp), %rax
	addq	$16, %rsp
	popq	%rbp
	ret
	.seh_endproc
	.def	_ZL22stbi__resample_row_h_2PhS_S_ii;	.scl	3;	.type	32;	.endef
	.seh_proc	_ZL22stbi__resample_row_h_2PhS_S_ii
_ZL22stbi__resample_row_h_2PhS_S_ii:
	pushq	%rbp
	.seh_pushreg	%rbp
	movq	%rsp, %rbp
	.seh_setframe	%rbp, 0
	subq	$32, %rsp
	.seh_stackalloc	32
	.seh_endprologue
	movq	%rcx, 16(%rbp)
	movq	%rdx, 24(%rbp)
	movq	%r8, 32(%rbp)
	movl	%r9d, 40(%rbp)
	movq	24(%rbp), %rax
	movq	%rax, -16(%rbp)
	cmpl	$1, 40(%rbp)
	jne	.L570
	movq	16(%rbp), %rax
	addq	$1, %rax
	movq	-16(%rbp), %rdx
	movzbl	(%rdx), %edx
	movb	%dl, (%rax)
	movzbl	(%rax), %eax
	movq	16(%rbp), %rdx
	movb	%al, (%rdx)
	movq	16(%rbp), %rax
	jmp	.L571
.L570:
	movq	-16(%rbp), %rax
	movzbl	(%rax), %eax
	movq	16(%rbp), %rdx
	movb	%al, (%rdx)
	movq	-16(%rbp), %rax
	movzbl	(%rax), %eax
	movzbl	%al, %edx
	movl	%edx, %eax
	addl	%eax, %eax
	addl	%eax, %edx
	movq	-16(%rbp), %rax
	addq	$1, %rax
	movzbl	(%rax), %eax
	movzbl	%al, %eax
	addl	%edx, %eax
	addl	$2, %eax
	sarl	$2, %eax
	movl	%eax, %edx
	movq	16(%rbp), %rax
	addq	$1, %rax
	movb	%dl, (%rax)
	movl	$1, -4(%rbp)
.L573:
	movl	40(%rbp), %eax
	subl	$1, %eax
	cmpl	%eax, -4(%rbp)
	jge	.L572
	movl	-4(%rbp), %eax
	cltq
	movq	-16(%rbp), %rdx
	addq	%rdx, %rax
	movzbl	(%rax), %eax
	movzbl	%al, %edx
	movl	%edx, %eax
	addl	%eax, %eax
	addl	%edx, %eax
	addl	$2, %eax
	movl	%eax, -20(%rbp)
	movl	-4(%rbp), %eax
	cltq
	leaq	-1(%rax), %rdx
	movq	-16(%rbp), %rax
	addq	%rdx, %rax
	movzbl	(%rax), %eax
	movzbl	%al, %eax
	movl	-20(%rbp), %edx
	addl	%edx, %eax
	sarl	$2, %eax
	movl	%eax, %ecx
	movl	-4(%rbp), %eax
	addl	%eax, %eax
	cltq
	movq	16(%rbp), %rdx
	addq	%rdx, %rax
	movl	%ecx, %edx
	movb	%dl, (%rax)
	movl	-4(%rbp), %eax
	cltq
	leaq	1(%rax), %rdx
	movq	-16(%rbp), %rax
	addq	%rdx, %rax
	movzbl	(%rax), %eax
	movzbl	%al, %eax
	movl	-20(%rbp), %edx
	addl	%edx, %eax
	sarl	$2, %eax
	movl	%eax, %ecx
	movl	-4(%rbp), %eax
	addl	%eax, %eax
	cltq
	leaq	1(%rax), %rdx
	movq	16(%rbp), %rax
	addq	%rdx, %rax
	movl	%ecx, %edx
	movb	%dl, (%rax)
	addl	$1, -4(%rbp)
	jmp	.L573
.L572:
	movl	40(%rbp), %eax
	cltq
	leaq	-2(%rax), %rdx
	movq	-16(%rbp), %rax
	addq	%rdx, %rax
	movzbl	(%rax), %eax
	movzbl	%al, %edx
	movl	%edx, %eax
	addl	%eax, %eax
	addl	%eax, %edx
	movl	40(%rbp), %eax
	cltq
	leaq	-1(%rax), %rcx
	movq	-16(%rbp), %rax
	addq	%rcx, %rax
	movzbl	(%rax), %eax
	movzbl	%al, %eax
	addl	%edx, %eax
	addl	$2, %eax
	sarl	$2, %eax
	movl	%eax, %ecx
	movl	-4(%rbp), %eax
	addl	%eax, %eax
	cltq
	movq	16(%rbp), %rdx
	addq	%rdx, %rax
	movl	%ecx, %edx
	movb	%dl, (%rax)
	movl	40(%rbp), %eax
	cltq
	leaq	-1(%rax), %rdx
	movq	-16(%rbp), %rax
	addq	%rdx, %rax
	movl	-4(%rbp), %edx
	addl	%edx, %edx
	movslq	%edx, %rdx
	leaq	1(%rdx), %rcx
	movq	16(%rbp), %rdx
	addq	%rcx, %rdx
	movzbl	(%rax), %eax
	movb	%al, (%rdx)
	movq	16(%rbp), %rax
.L571:
	addq	$32, %rsp
	popq	%rbp
	ret
	.seh_endproc
	.def	_ZL23stbi__resample_row_hv_2PhS_S_ii;	.scl	3;	.type	32;	.endef
	.seh_proc	_ZL23stbi__resample_row_hv_2PhS_S_ii
_ZL23stbi__resample_row_hv_2PhS_S_ii:
	pushq	%rbp
	.seh_pushreg	%rbp
	movq	%rsp, %rbp
	.seh_setframe	%rbp, 0
	subq	$16, %rsp
	.seh_stackalloc	16
	.seh_endprologue
	movq	%rcx, 16(%rbp)
	movq	%rdx, 24(%rbp)
	movq	%r8, 32(%rbp)
	movl	%r9d, 40(%rbp)
	cmpl	$1, 40(%rbp)
	jne	.L575
	movq	24(%rbp), %rax
	movzbl	(%rax), %eax
	movzbl	%al, %edx
	movl	%edx, %eax
	addl	%eax, %eax
	addl	%eax, %edx
	movq	32(%rbp), %rax
	movzbl	(%rax), %eax
	movzbl	%al, %eax
	addl	%edx, %eax
	addl	$2, %eax
	sarl	$2, %eax
	movl	%eax, %edx
	movq	16(%rbp), %rax
	addq	$1, %rax
	movb	%dl, (%rax)
	movzbl	(%rax), %eax
	movq	16(%rbp), %rdx
	movb	%al, (%rdx)
	movq	16(%rbp), %rax
	jmp	.L576
.L575:
	movq	24(%rbp), %rax
	movzbl	(%rax), %eax
	movzbl	%al, %edx
	movl	%edx, %eax
	addl	%eax, %eax
	addl	%eax, %edx
	movq	32(%rbp), %rax
	movzbl	(%rax), %eax
	movzbl	%al, %eax
	addl	%edx, %eax
	movl	%eax, -8(%rbp)
	movl	-8(%rbp), %eax
	addl	$2, %eax
	sarl	$2, %eax
	movl	%eax, %edx
	movq	16(%rbp), %rax
	movb	%dl, (%rax)
	movl	$1, -4(%rbp)
.L578:
	movl	-4(%rbp), %eax
	cmpl	40(%rbp), %eax
	jge	.L577
	movl	-8(%rbp), %eax
	movl	%eax, -12(%rbp)
	movl	-4(%rbp), %eax
	cltq
	movq	24(%rbp), %rdx
	addq	%rdx, %rax
	movzbl	(%rax), %eax
	movzbl	%al, %edx
	movl	%edx, %eax
	addl	%eax, %eax
	addl	%eax, %edx
	movl	-4(%rbp), %eax
	cltq
	movq	32(%rbp), %rcx
	addq	%rcx, %rax
	movzbl	(%rax), %eax
	movzbl	%al, %eax
	addl	%edx, %eax
	movl	%eax, -8(%rbp)
	movl	-12(%rbp), %edx
	movl	%edx, %eax
	addl	%eax, %eax
	addl	%eax, %edx
	movl	-8(%rbp), %eax
	addl	%edx, %eax
	addl	$8, %eax
	sarl	$4, %eax
	movl	%eax, %ecx
	movl	-4(%rbp), %eax
	addl	%eax, %eax
	cltq
	leaq	-1(%rax), %rdx
	movq	16(%rbp), %rax
	addq	%rdx, %rax
	movl	%ecx, %edx
	movb	%dl, (%rax)
	movl	-8(%rbp), %edx
	movl	%edx, %eax
	addl	%eax, %eax
	addl	%eax, %edx
	movl	-12(%rbp), %eax
	addl	%edx, %eax
	addl	$8, %eax
	sarl	$4, %eax
	movl	%eax, %ecx
	movl	-4(%rbp), %eax
	addl	%eax, %eax
	cltq
	movq	16(%rbp), %rdx
	addq	%rdx, %rax
	movl	%ecx, %edx
	movb	%dl, (%rax)
	addl	$1, -4(%rbp)
	jmp	.L578
.L577:
	movl	-8(%rbp), %eax
	addl	$2, %eax
	sarl	$2, %eax
	movl	%eax, %ecx
	movl	40(%rbp), %eax
	addl	%eax, %eax
	cltq
	leaq	-1(%rax), %rdx
	movq	16(%rbp), %rax
	addq	%rdx, %rax
	movl	%ecx, %edx
	movb	%dl, (%rax)
	movq	16(%rbp), %rax
.L576:
	addq	$16, %rsp
	popq	%rbp
	ret
	.seh_endproc
	.def	_ZL26stbi__resample_row_genericPhS_S_ii;	.scl	3;	.type	32;	.endef
	.seh_proc	_ZL26stbi__resample_row_genericPhS_S_ii
_ZL26stbi__resample_row_genericPhS_S_ii:
	pushq	%rbp
	.seh_pushreg	%rbp
	movq	%rsp, %rbp
	.seh_setframe	%rbp, 0
	subq	$16, %rsp
	.seh_stackalloc	16
	.seh_endprologue
	movq	%rcx, 16(%rbp)
	movq	%rdx, 24(%rbp)
	movq	%r8, 32(%rbp)
	movl	%r9d, 40(%rbp)
	movl	$0, -4(%rbp)
.L583:
	movl	-4(%rbp), %eax
	cmpl	40(%rbp), %eax
	jge	.L580
	movl	$0, -8(%rbp)
.L582:
	movl	-8(%rbp), %eax
	cmpl	48(%rbp), %eax
	jge	.L581
	movl	-4(%rbp), %eax
	cltq
	movq	24(%rbp), %rdx
	addq	%rdx, %rax
	movl	-4(%rbp), %edx
	imull	48(%rbp), %edx
	movl	-8(%rbp), %ecx
	addl	%ecx, %edx
	movslq	%edx, %rdx
	movq	16(%rbp), %rcx
	addq	%rcx, %rdx
	movzbl	(%rax), %eax
	movb	%al, (%rdx)
	addl	$1, -8(%rbp)
	jmp	.L582
.L581:
	addl	$1, -4(%rbp)
	jmp	.L583
.L580:
	movq	16(%rbp), %rax
	addq	$16, %rsp
	popq	%rbp
	ret
	.seh_endproc
	.def	_ZL22stbi__YCbCr_to_RGB_rowPhPKhS1_S1_ii;	.scl	3;	.type	32;	.endef
	.seh_proc	_ZL22stbi__YCbCr_to_RGB_rowPhPKhS1_S1_ii
_ZL22stbi__YCbCr_to_RGB_rowPhPKhS1_S1_ii:
	pushq	%rbp
	.seh_pushreg	%rbp
	movq	%rsp, %rbp
	.seh_setframe	%rbp, 0
	subq	$32, %rsp
	.seh_stackalloc	32
	.seh_endprologue
	movq	%rcx, 16(%rbp)
	movq	%rdx, 24(%rbp)
	movq	%r8, 32(%rbp)
	movq	%r9, 40(%rbp)
	movl	$0, -4(%rbp)
.L596:
	movl	-4(%rbp), %eax
	cmpl	48(%rbp), %eax
	jge	.L597
	movl	-4(%rbp), %eax
	cltq
	movq	24(%rbp), %rdx
	addq	%rdx, %rax
	movzbl	(%rax), %eax
	movzbl	%al, %eax
	sall	$20, %eax
	addl	$524288, %eax
	movl	%eax, -20(%rbp)
	movl	-4(%rbp), %eax
	cltq
	movq	40(%rbp), %rdx
	addq	%rdx, %rax
	movzbl	(%rax), %eax
	movzbl	%al, %eax
	addl	$-128, %eax
	movl	%eax, -24(%rbp)
	movl	-4(%rbp), %eax
	cltq
	movq	32(%rbp), %rdx
	addq	%rdx, %rax
	movzbl	(%rax), %eax
	movzbl	%al, %eax
	addl	$-128, %eax
	movl	%eax, -28(%rbp)
	movl	-24(%rbp), %eax
	imull	$1470208, %eax, %eax
	movl	-20(%rbp), %edx
	addl	%edx, %eax
	movl	%eax, -8(%rbp)
	movl	-24(%rbp), %eax
	imull	$-748800, %eax, %eax
	movl	-20(%rbp), %edx
	addl	%edx, %eax
	movl	%eax, %edx
	movl	-28(%rbp), %eax
	imull	$-360960, %eax, %eax
	movw	$0, %ax
	addl	%edx, %eax
	movl	%eax, -12(%rbp)
	movl	-28(%rbp), %eax
	imull	$1858048, %eax, %eax
	movl	-20(%rbp), %edx
	addl	%edx, %eax
	movl	%eax, -16(%rbp)
	sarl	$20, -8(%rbp)
	sarl	$20, -12(%rbp)
	sarl	$20, -16(%rbp)
	movl	-8(%rbp), %eax
	cmpl	$255, %eax
	jbe	.L587
	cmpl	$0, -8(%rbp)
	jns	.L588
	movl	$0, -8(%rbp)
	jmp	.L587
.L588:
	movl	$255, -8(%rbp)
.L587:
	movl	-12(%rbp), %eax
	cmpl	$255, %eax
	jbe	.L590
	cmpl	$0, -12(%rbp)
	jns	.L591
	movl	$0, -12(%rbp)
	jmp	.L590
.L591:
	movl	$255, -12(%rbp)
.L590:
	movl	-16(%rbp), %eax
	cmpl	$255, %eax
	jbe	.L593
	cmpl	$0, -16(%rbp)
	jns	.L594
	movl	$0, -16(%rbp)
	jmp	.L593
.L594:
	movl	$255, -16(%rbp)
.L593:
	movl	-8(%rbp), %eax
	movl	%eax, %edx
	movq	16(%rbp), %rax
	movb	%dl, (%rax)
	movq	16(%rbp), %rax
	addq	$1, %rax
	movl	-12(%rbp), %edx
	movb	%dl, (%rax)
	movq	16(%rbp), %rax
	addq	$2, %rax
	movl	-16(%rbp), %edx
	movb	%dl, (%rax)
	movq	16(%rbp), %rax
	addq	$3, %rax
	movb	$-1, (%rax)
	movl	56(%rbp), %eax
	cltq
	addq	%rax, 16(%rbp)
	addl	$1, -4(%rbp)
	jmp	.L596
.L597:
	nop
	addq	$32, %rsp
	popq	%rbp
	ret
	.seh_endproc
	.def	_ZL16stbi__setup_jpegP10stbi__jpeg;	.scl	3;	.type	32;	.endef
	.seh_proc	_ZL16stbi__setup_jpegP10stbi__jpeg
_ZL16stbi__setup_jpegP10stbi__jpeg:
	pushq	%rbp
	.seh_pushreg	%rbp
	movq	%rsp, %rbp
	.seh_setframe	%rbp, 0
	.seh_endprologue
	movq	%rcx, 16(%rbp)
	movq	16(%rbp), %rax
	leaq	_ZL16stbi__idct_blockPhiPs(%rip), %rdx
	movq	%rdx, 18280(%rax)
	movq	16(%rbp), %rax
	leaq	_ZL22stbi__YCbCr_to_RGB_rowPhPKhS1_S1_ii(%rip), %rdx
	movq	%rdx, 18288(%rax)
	movq	16(%rbp), %rax
	leaq	_ZL23stbi__resample_row_hv_2PhS_S_ii(%rip), %rdx
	movq	%rdx, 18296(%rax)
	nop
	popq	%rbp
	ret
	.seh_endproc
	.def	_ZL18stbi__cleanup_jpegP10stbi__jpeg;	.scl	3;	.type	32;	.endef
	.seh_proc	_ZL18stbi__cleanup_jpegP10stbi__jpeg
_ZL18stbi__cleanup_jpegP10stbi__jpeg:
	pushq	%rbp
	.seh_pushreg	%rbp
	movq	%rsp, %rbp
	.seh_setframe	%rbp, 0
	subq	$48, %rsp
	.seh_stackalloc	48
	.seh_endprologue
	movq	%rcx, 16(%rbp)
	movl	$0, -4(%rbp)
.L604:
	movq	16(%rbp), %rax
	movq	(%rax), %rax
	movl	8(%rax), %eax
	cmpl	%eax, -4(%rbp)
	jge	.L605
	movq	16(%rbp), %rcx
	movl	-4(%rbp), %eax
	movslq	%eax, %rdx
	movq	%rdx, %rax
	addq	%rax, %rax
	addq	%rdx, %rax
	salq	$5, %rax
	addq	%rcx, %rax
	addq	$17880, %rax
	movq	(%rax), %rax
	testq	%rax, %rax
	je	.L601
	movq	16(%rbp), %rcx
	movl	-4(%rbp), %eax
	movslq	%eax, %rdx
	movq	%rdx, %rax
	addq	%rax, %rax
	addq	%rdx, %rax
	salq	$5, %rax
	addq	%rcx, %rax
	addq	$17880, %rax
	movq	(%rax), %rax
	movq	%rax, %rcx
	call	free
	movq	16(%rbp), %rcx
	movl	-4(%rbp), %eax
	movslq	%eax, %rdx
	movq	%rdx, %rax
	addq	%rax, %rax
	addq	%rdx, %rax
	salq	$5, %rax
	addq	%rcx, %rax
	addq	$17880, %rax
	movq	$0, (%rax)
	movq	16(%rbp), %rcx
	movl	-4(%rbp), %eax
	movslq	%eax, %rdx
	movq	%rdx, %rax
	addq	%rax, %rax
	addq	%rdx, %rax
	salq	$5, %rax
	addq	%rcx, %rax
	addq	$17872, %rax
	movq	$0, (%rax)
.L601:
	movq	16(%rbp), %rcx
	movl	-4(%rbp), %eax
	movslq	%eax, %rdx
	movq	%rdx, %rax
	addq	%rax, %rax
	addq	%rdx, %rax
	salq	$5, %rax
	addq	%rcx, %rax
	addq	$17888, %rax
	movq	(%rax), %rax
	testq	%rax, %rax
	je	.L602
	movq	16(%rbp), %rcx
	movl	-4(%rbp), %eax
	movslq	%eax, %rdx
	movq	%rdx, %rax
	addq	%rax, %rax
	addq	%rdx, %rax
	salq	$5, %rax
	addq	%rcx, %rax
	addq	$17888, %rax
	movq	(%rax), %rax
	movq	%rax, %rcx
	call	free
	movq	16(%rbp), %rcx
	movl	-4(%rbp), %eax
	movslq	%eax, %rdx
	movq	%rdx, %rax
	addq	%rax, %rax
	addq	%rdx, %rax
	salq	$5, %rax
	addq	%rcx, %rax
	addq	$17888, %rax
	movq	$0, (%rax)
	movq	16(%rbp), %rcx
	movl	-4(%rbp), %eax
	movslq	%eax, %rdx
	movq	%rdx, %rax
	addq	%rax, %rax
	addq	%rdx, %rax
	salq	$5, %rax
	addq	%rcx, %rax
	addq	$17904, %rax
	movq	$0, (%rax)
.L602:
	movq	16(%rbp), %rcx
	movl	-4(%rbp), %eax
	movslq	%eax, %rdx
	movq	%rdx, %rax
	addq	%rax, %rax
	addq	%rdx, %rax
	salq	$5, %rax
	addq	%rcx, %rax
	addq	$17896, %rax
	movq	(%rax), %rax
	testq	%rax, %rax
	je	.L603
	movq	16(%rbp), %rcx
	movl	-4(%rbp), %eax
	movslq	%eax, %rdx
	movq	%rdx, %rax
	addq	%rax, %rax
	addq	%rdx, %rax
	salq	$5, %rax
	addq	%rcx, %rax
	addq	$17896, %rax
	movq	(%rax), %rax
	movq	%rax, %rcx
	call	free
	movq	16(%rbp), %rcx
	movl	-4(%rbp), %eax
	movslq	%eax, %rdx
	movq	%rdx, %rax
	addq	%rax, %rax
	addq	%rdx, %rax
	salq	$5, %rax
	addq	%rcx, %rax
	addq	$17896, %rax
	movq	$0, (%rax)
.L603:
	addl	$1, -4(%rbp)
	jmp	.L604
.L605:
	nop
	addq	$48, %rsp
	popq	%rbp
	ret
	.seh_endproc
	.section .rdata,"dr"
.LC39:
	.ascii "bad req_comp\0"
	.text
	.def	_ZL15load_jpeg_imageP10stbi__jpegPiS1_S1_i;	.scl	3;	.type	32;	.endef
	.seh_proc	_ZL15load_jpeg_imageP10stbi__jpegPiS1_S1_i
_ZL15load_jpeg_imageP10stbi__jpegPiS1_S1_i:
	pushq	%rbp
	.seh_pushreg	%rbp
	pushq	%rbx
	.seh_pushreg	%rbx
	subq	$360, %rsp
	.seh_stackalloc	360
	leaq	128(%rsp), %rbp
	.seh_setframe	%rbp, 128
	.seh_endprologue
	movq	%rcx, 256(%rbp)
	movq	%rdx, 264(%rbp)
	movq	%r8, 272(%rbp)
	movq	%r9, 280(%rbp)
	movq	256(%rbp), %rax
	movq	(%rax), %rax
	movl	$0, 8(%rax)
	cmpl	$0, 288(%rbp)
	js	.L607
	cmpl	$4, 288(%rbp)
	jle	.L608
.L607:
	leaq	.LC39(%rip), %rcx
	call	_ZL9stbi__errPKc
	movl	$0, %eax
	jmp	.L609
.L608:
	movq	256(%rbp), %rcx
	call	_ZL23stbi__decode_jpeg_imageP10stbi__jpeg
	testl	%eax, %eax
	sete	%al
	testb	%al, %al
	je	.L610
	movq	256(%rbp), %rcx
	call	_ZL18stbi__cleanup_jpegP10stbi__jpeg
	movl	$0, %eax
	jmp	.L609
.L610:
	cmpl	$0, 288(%rbp)
	jne	.L611
	movq	256(%rbp), %rax
	movq	(%rax), %rax
	movl	8(%rax), %eax
	jmp	.L612
.L611:
	movl	288(%rbp), %eax
.L612:
	movl	%eax, 196(%rbp)
	movq	256(%rbp), %rax
	movq	(%rax), %rax
	movl	8(%rax), %eax
	cmpl	$3, %eax
	jne	.L613
	cmpl	$2, 196(%rbp)
	jg	.L613
	movl	$1, 220(%rbp)
	jmp	.L614
.L613:
	movq	256(%rbp), %rax
	movq	(%rax), %rax
	movl	8(%rax), %eax
	movl	%eax, 220(%rbp)
.L614:
	movl	$0, 216(%rbp)
.L623:
	movl	216(%rbp), %eax
	cmpl	220(%rbp), %eax
	jge	.L615
	leaq	-48(%rbp), %rcx
	movl	216(%rbp), %eax
	movslq	%eax, %rdx
	movq	%rdx, %rax
	addq	%rax, %rax
	addq	%rdx, %rax
	salq	$4, %rax
	addq	%rcx, %rax
	movq	%rax, 184(%rbp)
	movq	256(%rbp), %rax
	movq	(%rax), %rax
	movl	(%rax), %eax
	addl	$3, %eax
	movl	%eax, %eax
	movq	%rax, %rcx
	call	_ZL12stbi__mallocy
	movq	%rax, %r8
	movq	256(%rbp), %rcx
	movl	216(%rbp), %eax
	movslq	%eax, %rdx
	movq	%rdx, %rax
	addq	%rax, %rax
	addq	%rdx, %rax
	salq	$5, %rax
	addq	%rcx, %rax
	addq	$17896, %rax
	movq	%r8, (%rax)
	movq	256(%rbp), %rcx
	movl	216(%rbp), %eax
	movslq	%eax, %rdx
	movq	%rdx, %rax
	addq	%rax, %rax
	addq	%rdx, %rax
	salq	$5, %rax
	addq	%rcx, %rax
	addq	$17896, %rax
	movq	(%rax), %rax
	testq	%rax, %rax
	jne	.L616
	movq	256(%rbp), %rcx
	call	_ZL18stbi__cleanup_jpegP10stbi__jpeg
	leaq	.LC6(%rip), %rcx
	call	_ZL9stbi__errPKc
	movl	$0, %eax
	jmp	.L609
.L616:
	movq	256(%rbp), %rax
	movl	17800(%rax), %ecx
	movq	256(%rbp), %r8
	movl	216(%rbp), %eax
	movslq	%eax, %rdx
	movq	%rdx, %rax
	addq	%rax, %rax
	addq	%rdx, %rax
	salq	$5, %rax
	addq	%r8, %rax
	addq	$17828, %rax
	movl	(%rax), %ebx
	movl	%ecx, %eax
	cltd
	idivl	%ebx
	movl	%eax, %edx
	movq	184(%rbp), %rax
	movl	%edx, 24(%rax)
	movq	256(%rbp), %rax
	movl	17804(%rax), %ecx
	movq	256(%rbp), %r8
	movl	216(%rbp), %eax
	movslq	%eax, %rdx
	movq	%rdx, %rax
	addq	%rax, %rax
	addq	%rdx, %rax
	salq	$5, %rax
	addq	%r8, %rax
	addq	$17832, %rax
	movl	(%rax), %ebx
	movl	%ecx, %eax
	cltd
	idivl	%ebx
	movl	%eax, %edx
	movq	184(%rbp), %rax
	movl	%edx, 28(%rax)
	movq	184(%rbp), %rax
	movl	28(%rax), %eax
	sarl	%eax
	movl	%eax, %edx
	movq	184(%rbp), %rax
	movl	%edx, 36(%rax)
	movq	256(%rbp), %rax
	movq	(%rax), %rax
	movl	(%rax), %edx
	movq	184(%rbp), %rax
	movl	24(%rax), %eax
	addl	%edx, %eax
	subl	$1, %eax
	movq	184(%rbp), %rdx
	movl	24(%rdx), %edx
	movl	%edx, %ebx
	movl	$0, %edx
	divl	%ebx
	movl	%eax, %edx
	movq	184(%rbp), %rax
	movl	%edx, 32(%rax)
	movq	184(%rbp), %rax
	movl	$0, 40(%rax)
	movq	256(%rbp), %rcx
	movl	216(%rbp), %eax
	movslq	%eax, %rdx
	movq	%rdx, %rax
	addq	%rax, %rax
	addq	%rdx, %rax
	salq	$5, %rax
	addq	%rcx, %rax
	addq	$17872, %rax
	movq	(%rax), %rdx
	movq	184(%rbp), %rax
	movq	%rdx, 16(%rax)
	movq	184(%rbp), %rax
	movq	16(%rax), %rdx
	movq	184(%rbp), %rax
	movq	%rdx, 8(%rax)
	movq	184(%rbp), %rax
	movl	24(%rax), %eax
	cmpl	$1, %eax
	jne	.L618
	movq	184(%rbp), %rax
	movl	28(%rax), %eax
	cmpl	$1, %eax
	jne	.L618
	movq	184(%rbp), %rax
	leaq	_ZL14resample_row_1PhS_S_ii(%rip), %rdx
	movq	%rdx, (%rax)
	jmp	.L619
.L618:
	movq	184(%rbp), %rax
	movl	24(%rax), %eax
	cmpl	$1, %eax
	jne	.L620
	movq	184(%rbp), %rax
	movl	28(%rax), %eax
	cmpl	$2, %eax
	jne	.L620
	movq	184(%rbp), %rax
	leaq	_ZL22stbi__resample_row_v_2PhS_S_ii(%rip), %rdx
	movq	%rdx, (%rax)
	jmp	.L619
.L620:
	movq	184(%rbp), %rax
	movl	24(%rax), %eax
	cmpl	$2, %eax
	jne	.L621
	movq	184(%rbp), %rax
	movl	28(%rax), %eax
	cmpl	$1, %eax
	jne	.L621
	movq	184(%rbp), %rax
	leaq	_ZL22stbi__resample_row_h_2PhS_S_ii(%rip), %rdx
	movq	%rdx, (%rax)
	jmp	.L619
.L621:
	movq	184(%rbp), %rax
	movl	24(%rax), %eax
	cmpl	$2, %eax
	jne	.L622
	movq	184(%rbp), %rax
	movl	28(%rax), %eax
	cmpl	$2, %eax
	jne	.L622
	movq	256(%rbp), %rax
	movq	18296(%rax), %rdx
	movq	184(%rbp), %rax
	movq	%rdx, (%rax)
	jmp	.L619
.L622:
	movq	184(%rbp), %rax
	leaq	_ZL26stbi__resample_row_genericPhS_S_ii(%rip), %rdx
	movq	%rdx, (%rax)
.L619:
	addl	$1, 216(%rbp)
	jmp	.L623
.L615:
	movq	256(%rbp), %rax
	movq	(%rax), %rax
	movl	(%rax), %edx
	movl	196(%rbp), %eax
	imull	%edx, %eax
	movq	256(%rbp), %rdx
	movq	(%rdx), %rdx
	movl	4(%rdx), %edx
	imull	%edx, %eax
	addl	$1, %eax
	movl	%eax, %eax
	movq	%rax, %rcx
	call	_ZL12stbi__mallocy
	movq	%rax, 176(%rbp)
	cmpq	$0, 176(%rbp)
	jne	.L624
	movq	256(%rbp), %rcx
	call	_ZL18stbi__cleanup_jpegP10stbi__jpeg
	leaq	.LC6(%rip), %rcx
	call	_ZL9stbi__errPKc
	movl	$0, %eax
	jmp	.L609
.L624:
	movl	$0, 208(%rbp)
.L641:
	movq	256(%rbp), %rax
	movq	(%rax), %rax
	movl	4(%rax), %eax
	cmpl	%eax, 208(%rbp)
	jnb	.L625
	movq	256(%rbp), %rax
	movq	(%rax), %rax
	movl	(%rax), %edx
	movl	196(%rbp), %eax
	imull	%edx, %eax
	imull	208(%rbp), %eax
	movl	%eax, %edx
	movq	176(%rbp), %rax
	addq	%rdx, %rax
	movq	%rax, 200(%rbp)
	movl	$0, 216(%rbp)
.L632:
	movl	216(%rbp), %eax
	cmpl	220(%rbp), %eax
	jge	.L626
	leaq	-48(%rbp), %rcx
	movl	216(%rbp), %eax
	movslq	%eax, %rdx
	movq	%rdx, %rax
	addq	%rax, %rax
	addq	%rdx, %rax
	salq	$4, %rax
	addq	%rcx, %rax
	movq	%rax, 168(%rbp)
	movq	168(%rbp), %rax
	movl	36(%rax), %edx
	movq	168(%rbp), %rax
	movl	28(%rax), %eax
	sarl	%eax
	cmpl	%eax, %edx
	setge	%al
	movzbl	%al, %eax
	movl	%eax, 164(%rbp)
	movq	168(%rbp), %rax
	movq	(%rax), %r10
	movq	168(%rbp), %rax
	movl	24(%rax), %r9d
	movq	168(%rbp), %rax
	movl	32(%rax), %r11d
	cmpl	$0, 164(%rbp)
	je	.L627
	movq	168(%rbp), %rax
	movq	8(%rax), %rcx
	jmp	.L628
.L627:
	movq	168(%rbp), %rax
	movq	16(%rax), %rcx
.L628:
	cmpl	$0, 164(%rbp)
	je	.L629
	movq	168(%rbp), %rax
	movq	16(%rax), %rdx
	jmp	.L630
.L629:
	movq	168(%rbp), %rax
	movq	8(%rax), %rdx
.L630:
	movq	256(%rbp), %rbx
	movl	216(%rbp), %eax
	movslq	%eax, %r8
	movq	%r8, %rax
	addq	%rax, %rax
	addq	%r8, %rax
	salq	$5, %rax
	addq	%rbx, %rax
	addq	$17896, %rax
	movq	(%rax), %rax
	movl	%r9d, 32(%rsp)
	movl	%r11d, %r9d
	movq	%rcx, %r8
	movq	%rax, %rcx
	call	*%r10
	movq	%rax, %rdx
	movl	216(%rbp), %eax
	cltq
	movq	%rdx, -80(%rbp,%rax,8)
	movq	168(%rbp), %rax
	movl	36(%rax), %eax
	leal	1(%rax), %edx
	movq	168(%rbp), %rax
	movl	%edx, 36(%rax)
	movq	168(%rbp), %rax
	movl	36(%rax), %edx
	movq	168(%rbp), %rax
	movl	28(%rax), %eax
	cmpl	%eax, %edx
	setge	%al
	testb	%al, %al
	je	.L631
	movq	168(%rbp), %rax
	movl	$0, 36(%rax)
	movq	168(%rbp), %rax
	movq	16(%rax), %rdx
	movq	168(%rbp), %rax
	movq	%rdx, 8(%rax)
	movq	168(%rbp), %rax
	movl	40(%rax), %eax
	leal	1(%rax), %edx
	movq	168(%rbp), %rax
	movl	%edx, 40(%rax)
	movq	168(%rbp), %rax
	movl	40(%rax), %ecx
	movq	256(%rbp), %r8
	movl	216(%rbp), %eax
	movslq	%eax, %rdx
	movq	%rdx, %rax
	addq	%rax, %rax
	addq	%rdx, %rax
	salq	$5, %rax
	addq	%r8, %rax
	addq	$17856, %rax
	movl	(%rax), %eax
	cmpl	%eax, %ecx
	setl	%al
	testb	%al, %al
	je	.L631
	movq	168(%rbp), %rax
	movq	16(%rax), %rcx
	movq	256(%rbp), %r8
	movl	216(%rbp), %eax
	movslq	%eax, %rdx
	movq	%rdx, %rax
	addq	%rax, %rax
	addq	%rdx, %rax
	salq	$5, %rax
	addq	%r8, %rax
	addq	$17860, %rax
	movl	(%rax), %eax
	cltq
	leaq	(%rcx,%rax), %rdx
	movq	168(%rbp), %rax
	movq	%rdx, 16(%rax)
.L631:
	addl	$1, 216(%rbp)
	jmp	.L632
.L626:
	cmpl	$2, 196(%rbp)
	jle	.L633
	movq	-80(%rbp), %rax
	movq	%rax, 152(%rbp)
	movq	256(%rbp), %rax
	movq	(%rax), %rax
	movl	8(%rax), %eax
	cmpl	$3, %eax
	jne	.L634
	movq	256(%rbp), %rax
	movq	18288(%rax), %rax
	movq	256(%rbp), %rdx
	movq	(%rdx), %rdx
	movl	(%rdx), %edx
	movl	%edx, %r11d
	movq	-64(%rbp), %r9
	movq	-72(%rbp), %r10
	movq	152(%rbp), %rdx
	movq	200(%rbp), %rcx
	movl	196(%rbp), %r8d
	movl	%r8d, 40(%rsp)
	movl	%r11d, 32(%rsp)
	movq	%r10, %r8
	call	*%rax
	jmp	.L637
.L634:
	movl	$0, 212(%rbp)
.L636:
	movq	256(%rbp), %rax
	movq	(%rax), %rax
	movl	(%rax), %eax
	cmpl	%eax, 212(%rbp)
	jnb	.L637
	movl	212(%rbp), %eax
	movq	152(%rbp), %rdx
	addq	%rdx, %rax
	movq	200(%rbp), %rdx
	addq	$2, %rdx
	movzbl	(%rax), %eax
	movb	%al, (%rdx)
	movq	200(%rbp), %rax
	addq	$1, %rax
	movzbl	(%rdx), %edx
	movb	%dl, (%rax)
	movzbl	(%rax), %eax
	movq	200(%rbp), %rdx
	movb	%al, (%rdx)
	movq	200(%rbp), %rax
	addq	$3, %rax
	movb	$-1, (%rax)
	movl	196(%rbp), %eax
	cltq
	addq	%rax, 200(%rbp)
	addl	$1, 212(%rbp)
	jmp	.L636
.L633:
	movq	-80(%rbp), %rax
	movq	%rax, 144(%rbp)
	cmpl	$1, 196(%rbp)
	jne	.L638
	movl	$0, 212(%rbp)
.L639:
	movq	256(%rbp), %rax
	movq	(%rax), %rax
	movl	(%rax), %eax
	cmpl	%eax, 212(%rbp)
	jnb	.L637
	movl	212(%rbp), %eax
	movq	144(%rbp), %rdx
	addq	%rdx, %rax
	movl	212(%rbp), %edx
	movq	200(%rbp), %rcx
	addq	%rcx, %rdx
	movzbl	(%rax), %eax
	movb	%al, (%rdx)
	addl	$1, 212(%rbp)
	jmp	.L639
.L638:
	movl	$0, 212(%rbp)
.L640:
	movq	256(%rbp), %rax
	movq	(%rax), %rax
	movl	(%rax), %eax
	cmpl	%eax, 212(%rbp)
	jnb	.L637
	movl	212(%rbp), %eax
	movq	144(%rbp), %rdx
	leaq	(%rax,%rdx), %rcx
	movq	200(%rbp), %rax
	leaq	1(%rax), %rdx
	movq	%rdx, 200(%rbp)
	movzbl	(%rcx), %edx
	movb	%dl, (%rax)
	movq	200(%rbp), %rax
	leaq	1(%rax), %rdx
	movq	%rdx, 200(%rbp)
	movb	$-1, (%rax)
	addl	$1, 212(%rbp)
	jmp	.L640
.L637:
	addl	$1, 208(%rbp)
	jmp	.L641
.L625:
	movq	256(%rbp), %rcx
	call	_ZL18stbi__cleanup_jpegP10stbi__jpeg
	movq	256(%rbp), %rax
	movq	(%rax), %rax
	movl	(%rax), %eax
	movl	%eax, %edx
	movq	264(%rbp), %rax
	movl	%edx, (%rax)
	movq	256(%rbp), %rax
	movq	(%rax), %rax
	movl	4(%rax), %eax
	movl	%eax, %edx
	movq	272(%rbp), %rax
	movl	%edx, (%rax)
	cmpq	$0, 280(%rbp)
	je	.L642
	movq	256(%rbp), %rax
	movq	(%rax), %rax
	movl	8(%rax), %edx
	movq	280(%rbp), %rax
	movl	%edx, (%rax)
.L642:
	movq	176(%rbp), %rax
.L609:
	addq	$360, %rsp
	popq	%rbx
	popq	%rbp
	ret
	.seh_endproc
	.def	_ZL15stbi__jpeg_loadP13stbi__contextPiS1_S1_i;	.scl	3;	.type	32;	.endef
	.seh_proc	_ZL15stbi__jpeg_loadP13stbi__contextPiS1_S1_i
_ZL15stbi__jpeg_loadP13stbi__contextPiS1_S1_i:
	pushq	%rbp
	.seh_pushreg	%rbp
	movl	$18352, %eax
	call	___chkstk_ms
	subq	%rax, %rsp
	.seh_stackalloc	18352
	leaq	128(%rsp), %rbp
	.seh_setframe	%rbp, 128
	.seh_endprologue
	movq	%rcx, 18240(%rbp)
	movq	%rdx, 18248(%rbp)
	movq	%r8, 18256(%rbp)
	movq	%r9, 18264(%rbp)
	movq	18240(%rbp), %rax
	movq	%rax, -80(%rbp)
	leaq	-80(%rbp), %rax
	movq	%rax, %rcx
	call	_ZL16stbi__setup_jpegP10stbi__jpeg
	movq	18264(%rbp), %r9
	movq	18256(%rbp), %r8
	movq	18248(%rbp), %rdx
	leaq	-80(%rbp), %rax
	movl	18272(%rbp), %ecx
	movl	%ecx, 32(%rsp)
	movq	%rax, %rcx
	call	_ZL15load_jpeg_imageP10stbi__jpegPiS1_S1_i
	nop
	addq	$18352, %rsp
	popq	%rbp
	ret
	.seh_endproc
	.def	_ZL15stbi__jpeg_testP13stbi__context;	.scl	3;	.type	32;	.endef
	.seh_proc	_ZL15stbi__jpeg_testP13stbi__context
_ZL15stbi__jpeg_testP13stbi__context:
	pushq	%rbp
	.seh_pushreg	%rbp
	movl	$18352, %eax
	call	___chkstk_ms
	subq	%rax, %rsp
	.seh_stackalloc	18352
	leaq	128(%rsp), %rbp
	.seh_setframe	%rbp, 128
	.seh_endprologue
	movq	%rcx, 18240(%rbp)
	movq	18240(%rbp), %rax
	movq	%rax, -96(%rbp)
	leaq	-96(%rbp), %rax
	movq	%rax, %rcx
	call	_ZL16stbi__setup_jpegP10stbi__jpeg
	leaq	-96(%rbp), %rax
	movl	$1, %edx
	movq	%rax, %rcx
	call	_ZL24stbi__decode_jpeg_headerP10stbi__jpegi
	movl	%eax, 18220(%rbp)
	movq	18240(%rbp), %rcx
	call	_ZL12stbi__rewindP13stbi__context
	movl	18220(%rbp), %eax
	addq	$18352, %rsp
	popq	%rbp
	ret
	.seh_endproc
	.def	_ZL19stbi__jpeg_info_rawP10stbi__jpegPiS1_S1_;	.scl	3;	.type	32;	.endef
	.seh_proc	_ZL19stbi__jpeg_info_rawP10stbi__jpegPiS1_S1_
_ZL19stbi__jpeg_info_rawP10stbi__jpegPiS1_S1_:
	pushq	%rbp
	.seh_pushreg	%rbp
	movq	%rsp, %rbp
	.seh_setframe	%rbp, 0
	subq	$32, %rsp
	.seh_stackalloc	32
	.seh_endprologue
	movq	%rcx, 16(%rbp)
	movq	%rdx, 24(%rbp)
	movq	%r8, 32(%rbp)
	movq	%r9, 40(%rbp)
	movl	$2, %edx
	movq	16(%rbp), %rcx
	call	_ZL24stbi__decode_jpeg_headerP10stbi__jpegi
	testl	%eax, %eax
	sete	%al
	testb	%al, %al
	je	.L648
	movq	16(%rbp), %rax
	movq	(%rax), %rax
	movq	%rax, %rcx
	call	_ZL12stbi__rewindP13stbi__context
	movl	$0, %eax
	jmp	.L649
.L648:
	cmpq	$0, 24(%rbp)
	je	.L650
	movq	16(%rbp), %rax
	movq	(%rax), %rax
	movl	(%rax), %eax
	movl	%eax, %edx
	movq	24(%rbp), %rax
	movl	%edx, (%rax)
.L650:
	cmpq	$0, 32(%rbp)
	je	.L651
	movq	16(%rbp), %rax
	movq	(%rax), %rax
	movl	4(%rax), %eax
	movl	%eax, %edx
	movq	32(%rbp), %rax
	movl	%edx, (%rax)
.L651:
	cmpq	$0, 40(%rbp)
	je	.L652
	movq	16(%rbp), %rax
	movq	(%rax), %rax
	movl	8(%rax), %edx
	movq	40(%rbp), %rax
	movl	%edx, (%rax)
.L652:
	movl	$1, %eax
.L649:
	addq	$32, %rsp
	popq	%rbp
	ret
	.seh_endproc
	.def	_ZL15stbi__jpeg_infoP13stbi__contextPiS1_S1_;	.scl	3;	.type	32;	.endef
	.seh_proc	_ZL15stbi__jpeg_infoP13stbi__contextPiS1_S1_
_ZL15stbi__jpeg_infoP13stbi__contextPiS1_S1_:
	pushq	%rbp
	.seh_pushreg	%rbp
	movl	$18336, %eax
	call	___chkstk_ms
	subq	%rax, %rsp
	.seh_stackalloc	18336
	leaq	128(%rsp), %rbp
	.seh_setframe	%rbp, 128
	.seh_endprologue
	movq	%rcx, 18224(%rbp)
	movq	%rdx, 18232(%rbp)
	movq	%r8, 18240(%rbp)
	movq	%r9, 18248(%rbp)
	movq	18224(%rbp), %rax
	movq	%rax, -96(%rbp)
	movq	18248(%rbp), %r8
	movq	18240(%rbp), %rcx
	movq	18232(%rbp), %rdx
	leaq	-96(%rbp), %rax
	movq	%r8, %r9
	movq	%rcx, %r8
	movq	%rax, %rcx
	call	_ZL19stbi__jpeg_info_rawP10stbi__jpegPiS1_S1_
	nop
	addq	$18336, %rsp
	popq	%rbp
	ret
	.seh_endproc
	.def	_ZL18stbi__bitreverse16i;	.scl	3;	.type	32;	.endef
	.seh_proc	_ZL18stbi__bitreverse16i
_ZL18stbi__bitreverse16i:
	pushq	%rbp
	.seh_pushreg	%rbp
	movq	%rsp, %rbp
	.seh_setframe	%rbp, 0
	.seh_endprologue
	movl	%ecx, 16(%rbp)
	movl	16(%rbp), %eax
	sarl	%eax
	andl	$21845, %eax
	movl	%eax, %edx
	movl	16(%rbp), %eax
	addl	%eax, %eax
	andl	$43690, %eax
	orl	%edx, %eax
	movl	%eax, 16(%rbp)
	movl	16(%rbp), %eax
	sarl	$2, %eax
	andl	$13107, %eax
	movl	%eax, %edx
	movl	16(%rbp), %eax
	sall	$2, %eax
	andl	$52428, %eax
	orl	%edx, %eax
	movl	%eax, 16(%rbp)
	movl	16(%rbp), %eax
	sarl	$4, %eax
	andl	$3855, %eax
	movl	%eax, %edx
	movl	16(%rbp), %eax
	sall	$4, %eax
	andl	$61680, %eax
	orl	%edx, %eax
	movl	%eax, 16(%rbp)
	movl	16(%rbp), %eax
	sarl	$8, %eax
	movzbl	%al, %edx
	movl	16(%rbp), %eax
	sall	$8, %eax
	movzwl	%ax, %eax
	orl	%edx, %eax
	movl	%eax, 16(%rbp)
	movl	16(%rbp), %eax
	popq	%rbp
	ret
	.seh_endproc
	.section .rdata,"dr"
.LC40:
	.ascii "bits <= 16\0"
	.text
	.def	_ZL17stbi__bit_reverseii;	.scl	3;	.type	32;	.endef
	.seh_proc	_ZL17stbi__bit_reverseii
_ZL17stbi__bit_reverseii:
	pushq	%rbp
	.seh_pushreg	%rbp
	movq	%rsp, %rbp
	.seh_setframe	%rbp, 0
	subq	$32, %rsp
	.seh_stackalloc	32
	.seh_endprologue
	movl	%ecx, 16(%rbp)
	movl	%edx, 24(%rbp)
	cmpl	$16, 24(%rbp)
	jle	.L660
	movl	$3463, %r8d
	leaq	.LC4(%rip), %rdx
	leaq	.LC40(%rip), %rcx
	call	_assert
.L660:
	movl	16(%rbp), %ecx
	call	_ZL18stbi__bitreverse16i
	movl	%eax, %edx
	movl	$16, %eax
	subl	24(%rbp), %eax
	movl	%eax, %ecx
	sarl	%cl, %edx
	movl	%edx, %eax
	addq	$32, %rsp
	popq	%rbp
	ret
	.seh_endproc
	.section .rdata,"dr"
.LC41:
	.ascii "bad sizes\0"
.LC42:
	.ascii "bad codelengths\0"
	.text
	.def	_ZL20stbi__zbuild_huffmanP14stbi__zhuffmanPhi;	.scl	3;	.type	32;	.endef
	.seh_proc	_ZL20stbi__zbuild_huffmanP14stbi__zhuffmanPhi
_ZL20stbi__zbuild_huffmanP14stbi__zhuffmanPhi:
	pushq	%rbp
	.seh_pushreg	%rbp
	movq	%rsp, %rbp
	.seh_setframe	%rbp, 0
	subq	$208, %rsp
	.seh_stackalloc	208
	.seh_endprologue
	movq	%rcx, 16(%rbp)
	movq	%rdx, 24(%rbp)
	movl	%r8d, 32(%rbp)
	movl	$0, -8(%rbp)
	leaq	-176(%rbp), %rax
	movl	$68, %r8d
	movl	$0, %edx
	movq	%rax, %rcx
	call	memset
	movq	16(%rbp), %rax
	movl	$1024, %r8d
	movl	$0, %edx
	movq	%rax, %rcx
	call	memset
	movl	$0, -4(%rbp)
.L664:
	movl	-4(%rbp), %eax
	cmpl	32(%rbp), %eax
	jge	.L663
	movl	-4(%rbp), %eax
	cltq
	movq	24(%rbp), %rdx
	addq	%rdx, %rax
	movzbl	(%rax), %eax
	movzbl	%al, %eax
	movslq	%eax, %rdx
	movl	-176(%rbp,%rdx,4), %edx
	addl	$1, %edx
	cltq
	movl	%edx, -176(%rbp,%rax,4)
	addl	$1, -4(%rbp)
	jmp	.L664
.L663:
	movl	$0, -176(%rbp)
	movl	$1, -4(%rbp)
.L668:
	cmpl	$15, -4(%rbp)
	jg	.L665
	movl	-4(%rbp), %eax
	cltq
	movl	-176(%rbp,%rax,4), %edx
	movl	-4(%rbp), %eax
	movl	$1, %r8d
	movl	%eax, %ecx
	sall	%cl, %r8d
	movl	%r8d, %eax
	cmpl	%eax, %edx
	jle	.L666
	leaq	.LC41(%rip), %rcx
	call	_ZL9stbi__errPKc
	jmp	.L678
.L666:
	addl	$1, -4(%rbp)
	jmp	.L668
.L665:
	movl	$0, -12(%rbp)
	movl	$1, -4(%rbp)
.L671:
	cmpl	$15, -4(%rbp)
	jg	.L669
	movl	-4(%rbp), %eax
	cltq
	movl	-12(%rbp), %edx
	movl	%edx, -96(%rbp,%rax,4)
	movl	-12(%rbp), %eax
	movl	%eax, %ecx
	movq	16(%rbp), %rax
	movl	-4(%rbp), %edx
	movslq	%edx, %rdx
	addq	$512, %rdx
	movw	%cx, (%rax,%rdx,2)
	movl	-8(%rbp), %eax
	movl	%eax, %ecx
	movq	16(%rbp), %rax
	movl	-4(%rbp), %edx
	movslq	%edx, %rdx
	addq	$560, %rdx
	movw	%cx, 4(%rax,%rdx,2)
	movl	-4(%rbp), %eax
	cltq
	movl	-176(%rbp,%rax,4), %eax
	addl	%eax, -12(%rbp)
	movl	-4(%rbp), %eax
	cltq
	movl	-176(%rbp,%rax,4), %eax
	testl	%eax, %eax
	je	.L670
	movl	-4(%rbp), %eax
	movl	$1, %edx
	movl	%eax, %ecx
	sall	%cl, %edx
	movl	%edx, %eax
	cmpl	%eax, -12(%rbp)
	jle	.L670
	leaq	.LC42(%rip), %rcx
	call	_ZL9stbi__errPKc
	jmp	.L678
.L670:
	movl	$16, %eax
	subl	-4(%rbp), %eax
	movl	-12(%rbp), %edx
	movl	%eax, %ecx
	sall	%cl, %edx
	movl	%edx, %ecx
	movq	16(%rbp), %rax
	movl	-4(%rbp), %edx
	movslq	%edx, %rdx
	addq	$264, %rdx
	movl	%ecx, (%rax,%rdx,4)
	sall	-12(%rbp)
	movl	-4(%rbp), %eax
	cltq
	movl	-176(%rbp,%rax,4), %eax
	addl	%eax, -8(%rbp)
	addl	$1, -4(%rbp)
	jmp	.L671
.L669:
	movq	16(%rbp), %rax
	movl	$65536, 1120(%rax)
	movl	$0, -4(%rbp)
.L677:
	movl	-4(%rbp), %eax
	cmpl	32(%rbp), %eax
	jge	.L672
	movl	-4(%rbp), %eax
	cltq
	movq	24(%rbp), %rdx
	addq	%rdx, %rax
	movzbl	(%rax), %eax
	movzbl	%al, %eax
	movl	%eax, -20(%rbp)
	cmpl	$0, -20(%rbp)
	je	.L673
	movl	-20(%rbp), %eax
	cltq
	movl	-96(%rbp,%rax,4), %ecx
	movq	16(%rbp), %rax
	movl	-20(%rbp), %edx
	movslq	%edx, %rdx
	addq	$512, %rdx
	movzwl	(%rax,%rdx,2), %eax
	movzwl	%ax, %eax
	subl	%eax, %ecx
	movq	16(%rbp), %rax
	movl	-20(%rbp), %edx
	movslq	%edx, %rdx
	addq	$560, %rdx
	movzwl	4(%rax,%rdx,2), %eax
	movzwl	%ax, %eax
	addl	%ecx, %eax
	movl	%eax, -24(%rbp)
	movl	-20(%rbp), %eax
	sall	$9, %eax
	movl	%eax, %edx
	movl	-4(%rbp), %eax
	orl	%edx, %eax
	movw	%ax, -26(%rbp)
	movl	-20(%rbp), %eax
	movl	%eax, %ecx
	movq	16(%rbp), %rdx
	movl	-24(%rbp), %eax
	cltq
	movb	%cl, 1156(%rdx,%rax)
	movl	-4(%rbp), %eax
	movl	%eax, %ecx
	movq	16(%rbp), %rax
	movl	-24(%rbp), %edx
	movslq	%edx, %rdx
	addq	$720, %rdx
	movw	%cx, 4(%rax,%rdx,2)
	cmpl	$9, -20(%rbp)
	jg	.L674
	movl	-20(%rbp), %eax
	cltq
	movl	-96(%rbp,%rax,4), %eax
	movl	-20(%rbp), %edx
	movl	%eax, %ecx
	call	_ZL17stbi__bit_reverseii
	movl	%eax, -16(%rbp)
.L676:
	cmpl	$511, -16(%rbp)
	jg	.L674
	movq	16(%rbp), %rdx
	movl	-16(%rbp), %eax
	cltq
	movzwl	-26(%rbp), %ecx
	movw	%cx, (%rdx,%rax,2)
	movl	-20(%rbp), %eax
	movl	$1, %edx
	movl	%eax, %ecx
	sall	%cl, %edx
	movl	%edx, %eax
	addl	%eax, -16(%rbp)
	jmp	.L676
.L674:
	movl	-20(%rbp), %eax
	cltq
	movl	-96(%rbp,%rax,4), %eax
	leal	1(%rax), %edx
	movl	-20(%rbp), %eax
	cltq
	movl	%edx, -96(%rbp,%rax,4)
.L673:
	addl	$1, -4(%rbp)
	jmp	.L677
.L672:
	movl	$1, %eax
.L678:
	addq	$208, %rsp
	popq	%rbp
	ret
	.seh_endproc
	.def	_ZL11stbi__zget8P10stbi__zbuf;	.scl	3;	.type	32;	.endef
	.seh_proc	_ZL11stbi__zget8P10stbi__zbuf
_ZL11stbi__zget8P10stbi__zbuf:
	pushq	%rbp
	.seh_pushreg	%rbp
	movq	%rsp, %rbp
	.seh_setframe	%rbp, 0
	.seh_endprologue
	movq	%rcx, 16(%rbp)
	movq	16(%rbp), %rax
	movq	(%rax), %rdx
	movq	16(%rbp), %rax
	movq	8(%rax), %rax
	cmpq	%rax, %rdx
	jb	.L680
	movl	$0, %eax
	jmp	.L681
.L680:
	movq	16(%rbp), %rax
	movq	(%rax), %rax
	leaq	1(%rax), %rdx
	movq	16(%rbp), %rcx
	movq	%rdx, (%rcx)
	movzbl	(%rax), %eax
.L681:
	popq	%rbp
	ret
	.seh_endproc
	.section .rdata,"dr"
	.align 8
.LC43:
	.ascii "z->code_buffer < (1U << z->num_bits)\0"
	.text
	.def	_ZL15stbi__fill_bitsP10stbi__zbuf;	.scl	3;	.type	32;	.endef
	.seh_proc	_ZL15stbi__fill_bitsP10stbi__zbuf
_ZL15stbi__fill_bitsP10stbi__zbuf:
	pushq	%rbp
	.seh_pushreg	%rbp
	movq	%rsp, %rbp
	.seh_setframe	%rbp, 0
	subq	$32, %rsp
	.seh_stackalloc	32
	.seh_endprologue
	movq	%rcx, 16(%rbp)
.L687:
	movq	16(%rbp), %rax
	movl	20(%rax), %edx
	movq	16(%rbp), %rax
	movl	16(%rax), %eax
	movl	%eax, %ecx
	shrl	%cl, %edx
	movl	%edx, %eax
	testl	%eax, %eax
	je	.L685
	movl	$3545, %r8d
	leaq	.LC4(%rip), %rdx
	leaq	.LC43(%rip), %rcx
	call	_assert
.L685:
	movq	16(%rbp), %rcx
	call	_ZL11stbi__zget8P10stbi__zbuf
	movzbl	%al, %edx
	movq	16(%rbp), %rax
	movl	16(%rax), %eax
	movl	%eax, %ecx
	sall	%cl, %edx
	movq	16(%rbp), %rax
	movl	20(%rax), %eax
	orl	%eax, %edx
	movq	16(%rbp), %rax
	movl	%edx, 20(%rax)
	movq	16(%rbp), %rax
	movl	16(%rax), %eax
	leal	8(%rax), %edx
	movq	16(%rbp), %rax
	movl	%edx, 16(%rax)
	movq	16(%rbp), %rax
	movl	16(%rax), %eax
	cmpl	$24, %eax
	jg	.L688
	jmp	.L687
.L688:
	nop
	addq	$32, %rsp
	popq	%rbp
	ret
	.seh_endproc
	.def	_ZL14stbi__zreceiveP10stbi__zbufi;	.scl	3;	.type	32;	.endef
	.seh_proc	_ZL14stbi__zreceiveP10stbi__zbufi
_ZL14stbi__zreceiveP10stbi__zbufi:
	pushq	%rbp
	.seh_pushreg	%rbp
	movq	%rsp, %rbp
	.seh_setframe	%rbp, 0
	subq	$48, %rsp
	.seh_stackalloc	48
	.seh_endprologue
	movq	%rcx, 16(%rbp)
	movl	%edx, 24(%rbp)
	movq	16(%rbp), %rax
	movl	16(%rax), %eax
	cmpl	%eax, 24(%rbp)
	jle	.L690
	movq	16(%rbp), %rcx
	call	_ZL15stbi__fill_bitsP10stbi__zbuf
.L690:
	movq	16(%rbp), %rax
	movl	20(%rax), %edx
	movl	24(%rbp), %eax
	movl	$1, %r8d
	movl	%eax, %ecx
	sall	%cl, %r8d
	movl	%r8d, %eax
	subl	$1, %eax
	andl	%edx, %eax
	movl	%eax, -4(%rbp)
	movq	16(%rbp), %rax
	movl	20(%rax), %edx
	movl	24(%rbp), %eax
	movl	%eax, %ecx
	shrl	%cl, %edx
	movq	16(%rbp), %rax
	movl	%edx, 20(%rax)
	movq	16(%rbp), %rax
	movl	16(%rax), %eax
	subl	24(%rbp), %eax
	movq	16(%rbp), %rdx
	movl	%eax, 16(%rdx)
	movl	-4(%rbp), %eax
	addq	$48, %rsp
	popq	%rbp
	ret
	.seh_endproc
	.section .rdata,"dr"
.LC44:
	.ascii "z->size[b] == s\0"
	.text
	.def	_ZL30stbi__zhuffman_decode_slowpathP10stbi__zbufP14stbi__zhuffman;	.scl	3;	.type	32;	.endef
	.seh_proc	_ZL30stbi__zhuffman_decode_slowpathP10stbi__zbufP14stbi__zhuffman
_ZL30stbi__zhuffman_decode_slowpathP10stbi__zbufP14stbi__zhuffman:
	pushq	%rbp
	.seh_pushreg	%rbp
	movq	%rsp, %rbp
	.seh_setframe	%rbp, 0
	subq	$48, %rsp
	.seh_stackalloc	48
	.seh_endprologue
	movq	%rcx, 16(%rbp)
	movq	%rdx, 24(%rbp)
	movq	16(%rbp), %rax
	movl	20(%rax), %eax
	movl	$16, %edx
	movl	%eax, %ecx
	call	_ZL17stbi__bit_reverseii
	movl	%eax, -8(%rbp)
	movl	$10, -4(%rbp)
.L695:
	movq	24(%rbp), %rax
	movl	-4(%rbp), %edx
	movslq	%edx, %rdx
	addq	$264, %rdx
	movl	(%rax,%rdx,4), %eax
	cmpl	%eax, -8(%rbp)
	jl	.L702
	addl	$1, -4(%rbp)
	jmp	.L695
.L702:
	nop
	cmpl	$16, -4(%rbp)
	jne	.L696
	movl	$-1, %eax
	jmp	.L697
.L696:
	movl	$16, %eax
	subl	-4(%rbp), %eax
	movl	-8(%rbp), %edx
	movl	%eax, %ecx
	sarl	%cl, %edx
	movl	%edx, %ecx
	movq	24(%rbp), %rax
	movl	-4(%rbp), %edx
	movslq	%edx, %rdx
	addq	$512, %rdx
	movzwl	(%rax,%rdx,2), %eax
	movzwl	%ax, %eax
	subl	%eax, %ecx
	movq	24(%rbp), %rax
	movl	-4(%rbp), %edx
	movslq	%edx, %rdx
	addq	$560, %rdx
	movzwl	4(%rax,%rdx,2), %eax
	movzwl	%ax, %eax
	addl	%ecx, %eax
	movl	%eax, -12(%rbp)
	movq	24(%rbp), %rdx
	movl	-12(%rbp), %eax
	cltq
	movzbl	1156(%rdx,%rax), %eax
	movzbl	%al, %eax
	cmpl	%eax, -4(%rbp)
	je	.L700
	movl	$3573, %r8d
	leaq	.LC4(%rip), %rdx
	leaq	.LC44(%rip), %rcx
	call	_assert
.L700:
	movq	16(%rbp), %rax
	movl	20(%rax), %edx
	movl	-4(%rbp), %eax
	movl	%eax, %ecx
	shrl	%cl, %edx
	movq	16(%rbp), %rax
	movl	%edx, 20(%rax)
	movq	16(%rbp), %rax
	movl	16(%rax), %eax
	subl	-4(%rbp), %eax
	movq	16(%rbp), %rdx
	movl	%eax, 16(%rdx)
	movq	24(%rbp), %rax
	movl	-12(%rbp), %edx
	movslq	%edx, %rdx
	addq	$720, %rdx
	movzwl	4(%rax,%rdx,2), %eax
	movzwl	%ax, %eax
.L697:
	addq	$48, %rsp
	popq	%rbp
	ret
	.seh_endproc
	.def	_ZL21stbi__zhuffman_decodeP10stbi__zbufP14stbi__zhuffman;	.scl	3;	.type	32;	.endef
	.seh_proc	_ZL21stbi__zhuffman_decodeP10stbi__zbufP14stbi__zhuffman
_ZL21stbi__zhuffman_decodeP10stbi__zbufP14stbi__zhuffman:
	pushq	%rbp
	.seh_pushreg	%rbp
	movq	%rsp, %rbp
	.seh_setframe	%rbp, 0
	subq	$48, %rsp
	.seh_stackalloc	48
	.seh_endprologue
	movq	%rcx, 16(%rbp)
	movq	%rdx, 24(%rbp)
	movq	16(%rbp), %rax
	movl	16(%rax), %eax
	cmpl	$15, %eax
	jg	.L704
	movq	16(%rbp), %rcx
	call	_ZL15stbi__fill_bitsP10stbi__zbuf
.L704:
	movq	16(%rbp), %rax
	movl	20(%rax), %eax
	andl	$511, %eax
	movl	%eax, %edx
	movq	24(%rbp), %rax
	movl	%edx, %edx
	movzwl	(%rax,%rdx,2), %eax
	movzwl	%ax, %eax
	movl	%eax, -4(%rbp)
	cmpl	$0, -4(%rbp)
	je	.L705
	movl	-4(%rbp), %eax
	sarl	$9, %eax
	movl	%eax, -8(%rbp)
	movq	16(%rbp), %rax
	movl	20(%rax), %edx
	movl	-8(%rbp), %eax
	movl	%eax, %ecx
	shrl	%cl, %edx
	movq	16(%rbp), %rax
	movl	%edx, 20(%rax)
	movq	16(%rbp), %rax
	movl	16(%rax), %eax
	subl	-8(%rbp), %eax
	movq	16(%rbp), %rdx
	movl	%eax, 16(%rdx)
	movl	-4(%rbp), %eax
	andl	$511, %eax
	jmp	.L706
.L705:
	movq	24(%rbp), %rax
	movq	%rax, %rdx
	movq	16(%rbp), %rcx
	call	_ZL30stbi__zhuffman_decode_slowpathP10stbi__zbufP14stbi__zhuffman
	nop
.L706:
	addq	$48, %rsp
	popq	%rbp
	ret
	.seh_endproc
	.section .rdata,"dr"
.LC45:
	.ascii "output buffer limit\0"
	.text
	.def	_ZL13stbi__zexpandP10stbi__zbufPci;	.scl	3;	.type	32;	.endef
	.seh_proc	_ZL13stbi__zexpandP10stbi__zbufPci
_ZL13stbi__zexpandP10stbi__zbufPci:
	pushq	%rbp
	.seh_pushreg	%rbp
	movq	%rsp, %rbp
	.seh_setframe	%rbp, 0
	subq	$48, %rsp
	.seh_stackalloc	48
	.seh_endprologue
	movq	%rcx, 16(%rbp)
	movq	%rdx, 24(%rbp)
	movl	%r8d, 32(%rbp)
	movq	16(%rbp), %rax
	movq	24(%rbp), %rdx
	movq	%rdx, 24(%rax)
	movq	16(%rbp), %rax
	movl	48(%rax), %eax
	testl	%eax, %eax
	jne	.L708
	leaq	.LC45(%rip), %rcx
	call	_ZL9stbi__errPKc
	jmp	.L709
.L708:
	movq	16(%rbp), %rax
	movq	24(%rax), %rdx
	movq	16(%rbp), %rax
	movq	32(%rax), %rax
	subq	%rax, %rdx
	movq	%rdx, %rax
	movl	%eax, -8(%rbp)
	movq	16(%rbp), %rax
	movq	40(%rax), %rdx
	movq	16(%rbp), %rax
	movq	32(%rax), %rax
	subq	%rax, %rdx
	movq	%rdx, %rax
	movl	%eax, -4(%rbp)
.L711:
	movl	-8(%rbp), %edx
	movl	32(%rbp), %eax
	addl	%edx, %eax
	cmpl	%eax, -4(%rbp)
	jge	.L710
	sall	-4(%rbp)
	jmp	.L711
.L710:
	movl	-4(%rbp), %eax
	cltq
	movq	16(%rbp), %rdx
	movq	32(%rdx), %rcx
	movq	%rax, %rdx
	call	realloc
	movq	%rax, -16(%rbp)
	cmpq	$0, -16(%rbp)
	jne	.L712
	leaq	.LC6(%rip), %rcx
	call	_ZL9stbi__errPKc
	jmp	.L709
.L712:
	movq	16(%rbp), %rax
	movq	-16(%rbp), %rdx
	movq	%rdx, 32(%rax)
	movl	-8(%rbp), %eax
	cltq
	movq	-16(%rbp), %rdx
	addq	%rax, %rdx
	movq	16(%rbp), %rax
	movq	%rdx, 24(%rax)
	movl	-4(%rbp), %eax
	cltq
	movq	-16(%rbp), %rdx
	addq	%rax, %rdx
	movq	16(%rbp), %rax
	movq	%rdx, 40(%rax)
	movl	$1, %eax
.L709:
	addq	$48, %rsp
	popq	%rbp
	ret
	.seh_endproc
	.data
	.align 32
_ZL18stbi__zlength_base:
	.long	3
	.long	4
	.long	5
	.long	6
	.long	7
	.long	8
	.long	9
	.long	10
	.long	11
	.long	13
	.long	15
	.long	17
	.long	19
	.long	23
	.long	27
	.long	31
	.long	35
	.long	43
	.long	51
	.long	59
	.long	67
	.long	83
	.long	99
	.long	115
	.long	131
	.long	163
	.long	195
	.long	227
	.long	258
	.long	0
	.long	0
	.align 32
_ZL19stbi__zlength_extra:
	.long	0
	.long	0
	.long	0
	.long	0
	.long	0
	.long	0
	.long	0
	.long	0
	.long	1
	.long	1
	.long	1
	.long	1
	.long	2
	.long	2
	.long	2
	.long	2
	.long	3
	.long	3
	.long	3
	.long	3
	.long	4
	.long	4
	.long	4
	.long	4
	.long	5
	.long	5
	.long	5
	.long	5
	.long	0
	.long	0
	.long	0
	.align 32
_ZL16stbi__zdist_base:
	.long	1
	.long	2
	.long	3
	.long	4
	.long	5
	.long	7
	.long	9
	.long	13
	.long	17
	.long	25
	.long	33
	.long	49
	.long	65
	.long	97
	.long	129
	.long	193
	.long	257
	.long	385
	.long	513
	.long	769
	.long	1025
	.long	1537
	.long	2049
	.long	3073
	.long	4097
	.long	6145
	.long	8193
	.long	12289
	.long	16385
	.long	24577
	.long	0
	.long	0
	.align 32
_ZL17stbi__zdist_extra:
	.long	0
	.long	0
	.long	0
	.long	0
	.long	1
	.long	1
	.long	2
	.long	2
	.long	3
	.long	3
	.long	4
	.long	4
	.long	5
	.long	5
	.long	6
	.long	6
	.long	7
	.long	7
	.long	8
	.long	8
	.long	9
	.long	9
	.long	10
	.long	10
	.long	11
	.long	11
	.long	12
	.long	12
	.long	13
	.long	13
	.space 8
	.section .rdata,"dr"
.LC46:
	.ascii "bad dist\0"
	.text
	.def	_ZL25stbi__parse_huffman_blockP10stbi__zbuf;	.scl	3;	.type	32;	.endef
	.seh_proc	_ZL25stbi__parse_huffman_blockP10stbi__zbuf
_ZL25stbi__parse_huffman_blockP10stbi__zbuf:
	pushq	%rbp
	.seh_pushreg	%rbp
	movq	%rsp, %rbp
	.seh_setframe	%rbp, 0
	subq	$64, %rsp
	.seh_stackalloc	64
	.seh_endprologue
	movq	%rcx, 16(%rbp)
	movq	16(%rbp), %rax
	movq	24(%rax), %rax
	movq	%rax, -8(%rbp)
.L731:
	movq	16(%rbp), %rax
	addq	$52, %rax
	movq	%rax, %rdx
	movq	16(%rbp), %rcx
	call	_ZL21stbi__zhuffman_decodeP10stbi__zbufP14stbi__zhuffman
	movl	%eax, -28(%rbp)
	cmpl	$255, -28(%rbp)
	jg	.L714
	cmpl	$0, -28(%rbp)
	jns	.L715
	leaq	.LC14(%rip), %rcx
	call	_ZL9stbi__errPKc
	jmp	.L716
.L715:
	movq	16(%rbp), %rax
	movq	40(%rax), %rax
	cmpq	%rax, -8(%rbp)
	jb	.L717
	movq	-8(%rbp), %rax
	movl	$1, %r8d
	movq	%rax, %rdx
	movq	16(%rbp), %rcx
	call	_ZL13stbi__zexpandP10stbi__zbufPci
	testl	%eax, %eax
	sete	%al
	testb	%al, %al
	je	.L718
	movl	$0, %eax
	jmp	.L716
.L718:
	movq	16(%rbp), %rax
	movq	24(%rax), %rax
	movq	%rax, -8(%rbp)
.L717:
	movq	-8(%rbp), %rax
	leaq	1(%rax), %rdx
	movq	%rdx, -8(%rbp)
	movl	-28(%rbp), %edx
	movb	%dl, (%rax)
	jmp	.L731
.L714:
	cmpl	$256, -28(%rbp)
	jne	.L720
	movq	16(%rbp), %rax
	movq	-8(%rbp), %rdx
	movq	%rdx, 24(%rax)
	movl	$1, %eax
	jmp	.L716
.L720:
	subl	$257, -28(%rbp)
	movl	-28(%rbp), %eax
	cltq
	leaq	0(,%rax,4), %rdx
	leaq	_ZL18stbi__zlength_base(%rip), %rax
	movl	(%rdx,%rax), %eax
	movl	%eax, -20(%rbp)
	movl	-28(%rbp), %eax
	cltq
	leaq	0(,%rax,4), %rdx
	leaq	_ZL19stbi__zlength_extra(%rip), %rax
	movl	(%rdx,%rax), %eax
	testl	%eax, %eax
	je	.L721
	movl	-28(%rbp), %eax
	cltq
	leaq	0(,%rax,4), %rdx
	leaq	_ZL19stbi__zlength_extra(%rip), %rax
	movl	(%rdx,%rax), %eax
	movl	%eax, %edx
	movq	16(%rbp), %rcx
	call	_ZL14stbi__zreceiveP10stbi__zbufi
	movl	%eax, %edx
	movl	-20(%rbp), %eax
	addl	%edx, %eax
	movl	%eax, -20(%rbp)
.L721:
	movq	16(%rbp), %rax
	addq	$2072, %rax
	movq	%rax, %rdx
	movq	16(%rbp), %rcx
	call	_ZL21stbi__zhuffman_decodeP10stbi__zbufP14stbi__zhuffman
	movl	%eax, -28(%rbp)
	cmpl	$0, -28(%rbp)
	jns	.L722
	leaq	.LC14(%rip), %rcx
	call	_ZL9stbi__errPKc
	jmp	.L716
.L722:
	movl	-28(%rbp), %eax
	cltq
	leaq	0(,%rax,4), %rdx
	leaq	_ZL16stbi__zdist_base(%rip), %rax
	movl	(%rdx,%rax), %eax
	movl	%eax, -24(%rbp)
	movl	-28(%rbp), %eax
	cltq
	leaq	0(,%rax,4), %rdx
	leaq	_ZL17stbi__zdist_extra(%rip), %rax
	movl	(%rdx,%rax), %eax
	testl	%eax, %eax
	je	.L723
	movl	-28(%rbp), %eax
	cltq
	leaq	0(,%rax,4), %rdx
	leaq	_ZL17stbi__zdist_extra(%rip), %rax
	movl	(%rdx,%rax), %eax
	movl	%eax, %edx
	movq	16(%rbp), %rcx
	call	_ZL14stbi__zreceiveP10stbi__zbufi
	movl	%eax, %edx
	movl	-24(%rbp), %eax
	addl	%edx, %eax
	movl	%eax, -24(%rbp)
.L723:
	movq	16(%rbp), %rax
	movq	32(%rax), %rax
	movq	-8(%rbp), %rdx
	subq	%rax, %rdx
	movl	-24(%rbp), %eax
	cltq
	cmpq	%rax, %rdx
	jge	.L724
	leaq	.LC46(%rip), %rcx
	call	_ZL9stbi__errPKc
	jmp	.L716
.L724:
	movl	-20(%rbp), %eax
	cltq
	movq	-8(%rbp), %rdx
	addq	%rax, %rdx
	movq	16(%rbp), %rax
	movq	40(%rax), %rax
	cmpq	%rax, %rdx
	jbe	.L725
	movl	-20(%rbp), %edx
	movq	-8(%rbp), %rax
	movl	%edx, %r8d
	movq	%rax, %rdx
	movq	16(%rbp), %rcx
	call	_ZL13stbi__zexpandP10stbi__zbufPci
	testl	%eax, %eax
	sete	%al
	testb	%al, %al
	je	.L726
	movl	$0, %eax
	jmp	.L716
.L726:
	movq	16(%rbp), %rax
	movq	24(%rax), %rax
	movq	%rax, -8(%rbp)
.L725:
	movl	-24(%rbp), %eax
	cltq
	negq	%rax
	movq	%rax, %rdx
	movq	-8(%rbp), %rax
	addq	%rdx, %rax
	movq	%rax, -16(%rbp)
	cmpl	$1, -24(%rbp)
	jne	.L727
	movq	-16(%rbp), %rax
	movzbl	(%rax), %eax
	movb	%al, -29(%rbp)
	cmpl	$0, -20(%rbp)
	je	.L731
.L729:
	movq	-8(%rbp), %rax
	leaq	1(%rax), %rdx
	movq	%rdx, -8(%rbp)
	movzbl	-29(%rbp), %edx
	movb	%dl, (%rax)
	subl	$1, -20(%rbp)
	cmpl	$0, -20(%rbp)
	setne	%al
	testb	%al, %al
	je	.L731
	jmp	.L729
.L727:
	cmpl	$0, -20(%rbp)
	je	.L731
.L730:
	movq	-16(%rbp), %rax
	leaq	1(%rax), %rdx
	movq	%rdx, -16(%rbp)
	movzbl	(%rax), %ecx
	movq	-8(%rbp), %rax
	leaq	1(%rax), %rdx
	movq	%rdx, -8(%rbp)
	movl	%ecx, %edx
	movb	%dl, (%rax)
	subl	$1, -20(%rbp)
	cmpl	$0, -20(%rbp)
	setne	%al
	testb	%al, %al
	je	.L731
	jmp	.L730
.L716:
	addq	$64, %rsp
	popq	%rbp
	ret
	.seh_endproc
	.data
	.align 16
_ZZL27stbi__compute_huffman_codesP10stbi__zbufE15length_dezigzag:
	.byte	16
	.byte	17
	.byte	18
	.byte	0
	.byte	8
	.byte	7
	.byte	9
	.byte	6
	.byte	10
	.byte	5
	.byte	11
	.byte	4
	.byte	12
	.byte	3
	.byte	13
	.byte	2
	.byte	14
	.byte	1
	.byte	15
	.section .rdata,"dr"
.LC47:
	.ascii "c == 18\0"
	.text
	.def	_ZL27stbi__compute_huffman_codesP10stbi__zbuf;	.scl	3;	.type	32;	.endef
	.seh_proc	_ZL27stbi__compute_huffman_codesP10stbi__zbuf
_ZL27stbi__compute_huffman_codesP10stbi__zbuf:
	pushq	%rbp
	.seh_pushreg	%rbp
	subq	$2576, %rsp
	.seh_stackalloc	2576
	leaq	128(%rsp), %rbp
	.seh_setframe	%rbp, 128
	.seh_endprologue
	movq	%rcx, 2464(%rbp)
	movl	$5, %edx
	movq	2464(%rbp), %rcx
	call	_ZL14stbi__zreceiveP10stbi__zbufi
	addl	$257, %eax
	movl	%eax, 2436(%rbp)
	movl	$5, %edx
	movq	2464(%rbp), %rcx
	call	_ZL14stbi__zreceiveP10stbi__zbufi
	addl	$1, %eax
	movl	%eax, 2432(%rbp)
	movl	$4, %edx
	movq	2464(%rbp), %rcx
	call	_ZL14stbi__zreceiveP10stbi__zbufi
	addl	$4, %eax
	movl	%eax, 2428(%rbp)
	leaq	-96(%rbp), %rax
	movl	$19, %r8d
	movl	$0, %edx
	movq	%rax, %rcx
	call	memset
	movl	$0, 2444(%rbp)
.L734:
	movl	2444(%rbp), %eax
	cmpl	2428(%rbp), %eax
	jge	.L733
	movl	$3, %edx
	movq	2464(%rbp), %rcx
	call	_ZL14stbi__zreceiveP10stbi__zbufi
	movl	%eax, 2424(%rbp)
	movl	2444(%rbp), %eax
	cltq
	leaq	_ZZL27stbi__compute_huffman_codesP10stbi__zbufE15length_dezigzag(%rip), %rdx
	movzbl	(%rax,%rdx), %eax
	movzbl	%al, %eax
	movl	2424(%rbp), %edx
	cltq
	movb	%dl, -96(%rbp,%rax)
	addl	$1, 2444(%rbp)
	jmp	.L734
.L733:
	leaq	-96(%rbp), %rdx
	leaq	400(%rbp), %rax
	movl	$19, %r8d
	movq	%rax, %rcx
	call	_ZL20stbi__zbuild_huffmanP14stbi__zhuffmanPhi
	testl	%eax, %eax
	sete	%al
	testb	%al, %al
	je	.L735
	movl	$0, %eax
	jmp	.L751
.L735:
	movl	$0, 2440(%rbp)
.L747:
	movl	2436(%rbp), %edx
	movl	2432(%rbp), %eax
	addl	%edx, %eax
	cmpl	%eax, 2440(%rbp)
	jge	.L737
	leaq	400(%rbp), %rax
	movq	%rax, %rdx
	movq	2464(%rbp), %rcx
	call	_ZL21stbi__zhuffman_decodeP10stbi__zbufP14stbi__zhuffman
	movl	%eax, 2420(%rbp)
	cmpl	$0, 2420(%rbp)
	js	.L738
	cmpl	$18, 2420(%rbp)
	jle	.L739
.L738:
	leaq	.LC42(%rip), %rcx
	call	_ZL9stbi__errPKc
	jmp	.L751
.L739:
	cmpl	$15, 2420(%rbp)
	jg	.L740
	movl	2440(%rbp), %eax
	leal	1(%rax), %edx
	movl	%edx, 2440(%rbp)
	movl	2420(%rbp), %edx
	cltq
	movb	%dl, -64(%rbp,%rax)
	jmp	.L747
.L740:
	cmpl	$16, 2420(%rbp)
	jne	.L742
	movl	$2, %edx
	movq	2464(%rbp), %rcx
	call	_ZL14stbi__zreceiveP10stbi__zbufi
	addl	$3, %eax
	movl	%eax, 2420(%rbp)
	movl	2420(%rbp), %eax
	movslq	%eax, %rdx
	movl	2440(%rbp), %eax
	subl	$1, %eax
	cltq
	movzbl	-64(%rbp,%rax), %eax
	movzbl	%al, %eax
	movl	2440(%rbp), %ecx
	movslq	%ecx, %rcx
	leaq	-64(%rbp), %r8
	addq	%r8, %rcx
	movq	%rdx, %r8
	movl	%eax, %edx
	call	memset
	movl	2420(%rbp), %eax
	addl	%eax, 2440(%rbp)
	jmp	.L747
.L742:
	cmpl	$17, 2420(%rbp)
	jne	.L743
	movl	$3, %edx
	movq	2464(%rbp), %rcx
	call	_ZL14stbi__zreceiveP10stbi__zbufi
	addl	$3, %eax
	movl	%eax, 2420(%rbp)
	movl	2420(%rbp), %eax
	movslq	%eax, %rdx
	movl	2440(%rbp), %eax
	cltq
	leaq	-64(%rbp), %rcx
	addq	%rcx, %rax
	movq	%rdx, %r8
	movl	$0, %edx
	movq	%rax, %rcx
	call	memset
	movl	2420(%rbp), %eax
	addl	%eax, 2440(%rbp)
	jmp	.L747
.L743:
	cmpl	$18, 2420(%rbp)
	je	.L746
	movl	$3701, %r8d
	leaq	.LC4(%rip), %rdx
	leaq	.LC47(%rip), %rcx
	call	_assert
.L746:
	movl	$7, %edx
	movq	2464(%rbp), %rcx
	call	_ZL14stbi__zreceiveP10stbi__zbufi
	addl	$11, %eax
	movl	%eax, 2420(%rbp)
	movl	2420(%rbp), %eax
	movslq	%eax, %rdx
	movl	2440(%rbp), %eax
	cltq
	leaq	-64(%rbp), %rcx
	addq	%rcx, %rax
	movq	%rdx, %r8
	movl	$0, %edx
	movq	%rax, %rcx
	call	memset
	movl	2420(%rbp), %eax
	addl	%eax, 2440(%rbp)
	jmp	.L747
.L737:
	movl	2436(%rbp), %edx
	movl	2432(%rbp), %eax
	addl	%edx, %eax
	cmpl	%eax, 2440(%rbp)
	je	.L748
	leaq	.LC42(%rip), %rcx
	call	_ZL9stbi__errPKc
	jmp	.L751
.L748:
	movq	2464(%rbp), %rax
	leaq	52(%rax), %rcx
	movl	2436(%rbp), %edx
	leaq	-64(%rbp), %rax
	movl	%edx, %r8d
	movq	%rax, %rdx
	call	_ZL20stbi__zbuild_huffmanP14stbi__zhuffmanPhi
	testl	%eax, %eax
	sete	%al
	testb	%al, %al
	je	.L749
	movl	$0, %eax
	jmp	.L751
.L749:
	movl	2436(%rbp), %eax
	cltq
	leaq	-64(%rbp), %rdx
	addq	%rax, %rdx
	movq	2464(%rbp), %rax
	addq	$2072, %rax
	movl	2432(%rbp), %ecx
	movl	%ecx, %r8d
	movq	%rax, %rcx
	call	_ZL20stbi__zbuild_huffmanP14stbi__zhuffmanPhi
	testl	%eax, %eax
	sete	%al
	testb	%al, %al
	je	.L750
	movl	$0, %eax
	jmp	.L751
.L750:
	movl	$1, %eax
.L751:
	addq	$2576, %rsp
	popq	%rbp
	ret
	.seh_endproc
	.section .rdata,"dr"
.LC48:
	.ascii "a->num_bits == 0\0"
.LC49:
	.ascii "zlib corrupt\0"
.LC50:
	.ascii "read past buffer\0"
	.text
	.def	_ZL30stbi__parse_uncomperssed_blockP10stbi__zbuf;	.scl	3;	.type	32;	.endef
	.seh_proc	_ZL30stbi__parse_uncomperssed_blockP10stbi__zbuf
_ZL30stbi__parse_uncomperssed_blockP10stbi__zbuf:
	pushq	%rbp
	.seh_pushreg	%rbp
	pushq	%rbx
	.seh_pushreg	%rbx
	subq	$56, %rsp
	.seh_stackalloc	56
	leaq	128(%rsp), %rbp
	.seh_setframe	%rbp, 128
	.seh_endprologue
	movq	%rcx, -48(%rbp)
	movq	-48(%rbp), %rax
	movl	16(%rax), %eax
	andl	$7, %eax
	testl	%eax, %eax
	je	.L753
	movq	-48(%rbp), %rax
	movl	16(%rax), %eax
	andl	$7, %eax
	movl	%eax, %edx
	movq	-48(%rbp), %rcx
	call	_ZL14stbi__zreceiveP10stbi__zbufi
.L753:
	movl	$0, -84(%rbp)
.L755:
	movq	-48(%rbp), %rax
	movl	16(%rax), %eax
	testl	%eax, %eax
	jle	.L754
	movq	-48(%rbp), %rax
	movl	20(%rax), %ecx
	movl	-84(%rbp), %eax
	leal	1(%rax), %edx
	movl	%edx, -84(%rbp)
	movl	%ecx, %edx
	cltq
	movb	%dl, -96(%rbp,%rax)
	movq	-48(%rbp), %rax
	movl	20(%rax), %eax
	shrl	$8, %eax
	movl	%eax, %edx
	movq	-48(%rbp), %rax
	movl	%edx, 20(%rax)
	movq	-48(%rbp), %rax
	movl	16(%rax), %eax
	leal	-8(%rax), %edx
	movq	-48(%rbp), %rax
	movl	%edx, 16(%rax)
	jmp	.L755
.L754:
	movq	-48(%rbp), %rax
	movl	16(%rax), %eax
	testl	%eax, %eax
	je	.L760
	movl	$3726, %r8d
	leaq	.LC4(%rip), %rdx
	leaq	.LC48(%rip), %rcx
	call	_assert
.L760:
	cmpl	$3, -84(%rbp)
	jg	.L759
	movl	-84(%rbp), %ebx
	leal	1(%rbx), %eax
	movl	%eax, -84(%rbp)
	movq	-48(%rbp), %rcx
	call	_ZL11stbi__zget8P10stbi__zbuf
	movl	%eax, %edx
	movslq	%ebx, %rax
	movb	%dl, -96(%rbp,%rax)
	jmp	.L760
.L759:
	movzbl	-95(%rbp), %eax
	movzbl	%al, %eax
	sall	$8, %eax
	movl	%eax, %edx
	movzbl	-96(%rbp), %eax
	movzbl	%al, %eax
	addl	%edx, %eax
	movl	%eax, -88(%rbp)
	movzbl	-93(%rbp), %eax
	movzbl	%al, %eax
	sall	$8, %eax
	movl	%eax, %edx
	movzbl	-94(%rbp), %eax
	movzbl	%al, %eax
	addl	%edx, %eax
	movl	%eax, -92(%rbp)
	movl	-88(%rbp), %eax
	xorl	$65535, %eax
	cmpl	%eax, -92(%rbp)
	je	.L761
	leaq	.LC49(%rip), %rcx
	call	_ZL9stbi__errPKc
	jmp	.L765
.L761:
	movq	-48(%rbp), %rax
	movq	(%rax), %rdx
	movl	-88(%rbp), %eax
	cltq
	addq	%rax, %rdx
	movq	-48(%rbp), %rax
	movq	8(%rax), %rax
	cmpq	%rax, %rdx
	jbe	.L763
	leaq	.LC50(%rip), %rcx
	call	_ZL9stbi__errPKc
	jmp	.L765
.L763:
	movq	-48(%rbp), %rax
	movq	24(%rax), %rdx
	movl	-88(%rbp), %eax
	cltq
	addq	%rax, %rdx
	movq	-48(%rbp), %rax
	movq	40(%rax), %rax
	cmpq	%rax, %rdx
	jbe	.L764
	movq	-48(%rbp), %rax
	movq	24(%rax), %rax
	movl	-88(%rbp), %edx
	movl	%edx, %r8d
	movq	%rax, %rdx
	movq	-48(%rbp), %rcx
	call	_ZL13stbi__zexpandP10stbi__zbufPci
	testl	%eax, %eax
	sete	%al
	testb	%al, %al
	je	.L764
	movl	$0, %eax
	jmp	.L765
.L764:
	movl	-88(%rbp), %eax
	movslq	%eax, %rcx
	movq	-48(%rbp), %rax
	movq	(%rax), %rdx
	movq	-48(%rbp), %rax
	movq	24(%rax), %rax
	movq	%rcx, %r8
	movq	%rax, %rcx
	call	memcpy
	movq	-48(%rbp), %rax
	movq	(%rax), %rdx
	movl	-88(%rbp), %eax
	cltq
	addq	%rax, %rdx
	movq	-48(%rbp), %rax
	movq	%rdx, (%rax)
	movq	-48(%rbp), %rax
	movq	24(%rax), %rdx
	movl	-88(%rbp), %eax
	cltq
	addq	%rax, %rdx
	movq	-48(%rbp), %rax
	movq	%rdx, 24(%rax)
	movl	$1, %eax
.L765:
	addq	$56, %rsp
	popq	%rbx
	popq	%rbp
	ret
	.seh_endproc
	.section .rdata,"dr"
.LC51:
	.ascii "bad zlib header\0"
.LC52:
	.ascii "no preset dict\0"
.LC53:
	.ascii "bad compression\0"
	.text
	.def	_ZL23stbi__parse_zlib_headerP10stbi__zbuf;	.scl	3;	.type	32;	.endef
	.seh_proc	_ZL23stbi__parse_zlib_headerP10stbi__zbuf
_ZL23stbi__parse_zlib_headerP10stbi__zbuf:
	pushq	%rbp
	.seh_pushreg	%rbp
	movq	%rsp, %rbp
	.seh_setframe	%rbp, 0
	subq	$48, %rsp
	.seh_stackalloc	48
	.seh_endprologue
	movq	%rcx, 16(%rbp)
	movq	16(%rbp), %rcx
	call	_ZL11stbi__zget8P10stbi__zbuf
	movzbl	%al, %eax
	movl	%eax, -4(%rbp)
	movl	-4(%rbp), %eax
	andl	$15, %eax
	movl	%eax, -8(%rbp)
	movq	16(%rbp), %rcx
	call	_ZL11stbi__zget8P10stbi__zbuf
	movzbl	%al, %eax
	movl	%eax, -12(%rbp)
	movl	-4(%rbp), %eax
	sall	$8, %eax
	movl	%eax, %edx
	movl	-12(%rbp), %eax
	addl	%eax, %edx
	movslq	%edx, %rax
	imulq	$-2078209981, %rax, %rax
	shrq	$32, %rax
	addl	%edx, %eax
	sarl	$4, %eax
	movl	%eax, %ecx
	movl	%edx, %eax
	sarl	$31, %eax
	subl	%eax, %ecx
	movl	%ecx, %eax
	movl	%eax, %ecx
	sall	$5, %ecx
	subl	%eax, %ecx
	movl	%edx, %eax
	subl	%ecx, %eax
	testl	%eax, %eax
	je	.L767
	leaq	.LC51(%rip), %rcx
	call	_ZL9stbi__errPKc
	jmp	.L768
.L767:
	movl	-12(%rbp), %eax
	andl	$32, %eax
	testl	%eax, %eax
	je	.L769
	leaq	.LC52(%rip), %rcx
	call	_ZL9stbi__errPKc
	jmp	.L768
.L769:
	cmpl	$8, -8(%rbp)
	je	.L770
	leaq	.LC53(%rip), %rcx
	call	_ZL9stbi__errPKc
	jmp	.L768
.L770:
	movl	$1, %eax
.L768:
	addq	$48, %rsp
	popq	%rbp
	ret
	.seh_endproc
.lcomm _ZL21stbi__zdefault_length,288,32
.lcomm _ZL23stbi__zdefault_distance,32,32
	.def	_ZL20stbi__init_zdefaultsv;	.scl	3;	.type	32;	.endef
	.seh_proc	_ZL20stbi__init_zdefaultsv
_ZL20stbi__init_zdefaultsv:
	pushq	%rbp
	.seh_pushreg	%rbp
	movq	%rsp, %rbp
	.seh_setframe	%rbp, 0
	subq	$16, %rsp
	.seh_stackalloc	16
	.seh_endprologue
	movl	$0, -4(%rbp)
.L773:
	cmpl	$143, -4(%rbp)
	jg	.L772
	movl	-4(%rbp), %eax
	cltq
	leaq	_ZL21stbi__zdefault_length(%rip), %rdx
	movb	$8, (%rax,%rdx)
	addl	$1, -4(%rbp)
	jmp	.L773
.L772:
	cmpl	$255, -4(%rbp)
	jg	.L774
	movl	-4(%rbp), %eax
	cltq
	leaq	_ZL21stbi__zdefault_length(%rip), %rdx
	movb	$9, (%rax,%rdx)
	addl	$1, -4(%rbp)
	jmp	.L772
.L774:
	cmpl	$279, -4(%rbp)
	jg	.L775
	movl	-4(%rbp), %eax
	cltq
	leaq	_ZL21stbi__zdefault_length(%rip), %rdx
	movb	$7, (%rax,%rdx)
	addl	$1, -4(%rbp)
	jmp	.L774
.L775:
	cmpl	$287, -4(%rbp)
	jg	.L776
	movl	-4(%rbp), %eax
	cltq
	leaq	_ZL21stbi__zdefault_length(%rip), %rdx
	movb	$8, (%rax,%rdx)
	addl	$1, -4(%rbp)
	jmp	.L775
.L776:
	movl	$0, -4(%rbp)
.L778:
	cmpl	$31, -4(%rbp)
	jg	.L779
	movl	-4(%rbp), %eax
	cltq
	leaq	_ZL23stbi__zdefault_distance(%rip), %rdx
	movb	$5, (%rax,%rdx)
	addl	$1, -4(%rbp)
	jmp	.L778
.L779:
	nop
	addq	$16, %rsp
	popq	%rbp
	ret
	.seh_endproc
	.def	_ZL16stbi__parse_zlibP10stbi__zbufi;	.scl	3;	.type	32;	.endef
	.seh_proc	_ZL16stbi__parse_zlibP10stbi__zbufi
_ZL16stbi__parse_zlibP10stbi__zbufi:
	pushq	%rbp
	.seh_pushreg	%rbp
	movq	%rsp, %rbp
	.seh_setframe	%rbp, 0
	subq	$48, %rsp
	.seh_stackalloc	48
	.seh_endprologue
	movq	%rcx, 16(%rbp)
	movl	%edx, 24(%rbp)
	cmpl	$0, 24(%rbp)
	je	.L781
	movq	16(%rbp), %rcx
	call	_ZL23stbi__parse_zlib_headerP10stbi__zbuf
	testl	%eax, %eax
	sete	%al
	testb	%al, %al
	je	.L781
	movl	$0, %eax
	jmp	.L782
.L781:
	movq	16(%rbp), %rax
	movl	$0, 16(%rax)
	movq	16(%rbp), %rax
	movl	$0, 20(%rax)
.L791:
	movl	$1, %edx
	movq	16(%rbp), %rcx
	call	_ZL14stbi__zreceiveP10stbi__zbufi
	movl	%eax, -4(%rbp)
	movl	$2, %edx
	movq	16(%rbp), %rcx
	call	_ZL14stbi__zreceiveP10stbi__zbufi
	movl	%eax, -8(%rbp)
	cmpl	$0, -8(%rbp)
	jne	.L783
	movq	16(%rbp), %rcx
	call	_ZL30stbi__parse_uncomperssed_blockP10stbi__zbuf
	testl	%eax, %eax
	sete	%al
	testb	%al, %al
	je	.L784
	movl	$0, %eax
	jmp	.L782
.L783:
	cmpl	$3, -8(%rbp)
	jne	.L785
	movl	$0, %eax
	jmp	.L782
.L785:
	cmpl	$1, -8(%rbp)
	jne	.L786
	movzbl	31+_ZL23stbi__zdefault_distance(%rip), %eax
	testb	%al, %al
	jne	.L787
	call	_ZL20stbi__init_zdefaultsv
.L787:
	movq	16(%rbp), %rax
	addq	$52, %rax
	movl	$288, %r8d
	leaq	_ZL21stbi__zdefault_length(%rip), %rdx
	movq	%rax, %rcx
	call	_ZL20stbi__zbuild_huffmanP14stbi__zhuffmanPhi
	testl	%eax, %eax
	sete	%al
	testb	%al, %al
	je	.L788
	movl	$0, %eax
	jmp	.L782
.L788:
	movq	16(%rbp), %rax
	addq	$2072, %rax
	movl	$32, %r8d
	leaq	_ZL23stbi__zdefault_distance(%rip), %rdx
	movq	%rax, %rcx
	call	_ZL20stbi__zbuild_huffmanP14stbi__zhuffmanPhi
	testl	%eax, %eax
	sete	%al
	testb	%al, %al
	je	.L789
	movl	$0, %eax
	jmp	.L782
.L786:
	movq	16(%rbp), %rcx
	call	_ZL27stbi__compute_huffman_codesP10stbi__zbuf
	testl	%eax, %eax
	sete	%al
	testb	%al, %al
	je	.L789
	movl	$0, %eax
	jmp	.L782
.L789:
	movq	16(%rbp), %rcx
	call	_ZL25stbi__parse_huffman_blockP10stbi__zbuf
	testl	%eax, %eax
	sete	%al
	testb	%al, %al
	je	.L784
	movl	$0, %eax
	jmp	.L782
.L784:
	cmpl	$0, -4(%rbp)
	jne	.L790
	jmp	.L791
.L790:
	movl	$1, %eax
.L782:
	addq	$48, %rsp
	popq	%rbp
	ret
	.seh_endproc
	.def	_ZL13stbi__do_zlibP10stbi__zbufPciii;	.scl	3;	.type	32;	.endef
	.seh_proc	_ZL13stbi__do_zlibP10stbi__zbufPciii
_ZL13stbi__do_zlibP10stbi__zbufPciii:
	pushq	%rbp
	.seh_pushreg	%rbp
	movq	%rsp, %rbp
	.seh_setframe	%rbp, 0
	subq	$32, %rsp
	.seh_stackalloc	32
	.seh_endprologue
	movq	%rcx, 16(%rbp)
	movq	%rdx, 24(%rbp)
	movl	%r8d, 32(%rbp)
	movl	%r9d, 40(%rbp)
	movq	16(%rbp), %rax
	movq	24(%rbp), %rdx
	movq	%rdx, 32(%rax)
	movq	16(%rbp), %rax
	movq	24(%rbp), %rdx
	movq	%rdx, 24(%rax)
	movl	32(%rbp), %eax
	cltq
	movq	24(%rbp), %rdx
	addq	%rax, %rdx
	movq	16(%rbp), %rax
	movq	%rdx, 40(%rax)
	movq	16(%rbp), %rax
	movl	40(%rbp), %edx
	movl	%edx, 48(%rax)
	movl	48(%rbp), %eax
	movl	%eax, %edx
	movq	16(%rbp), %rcx
	call	_ZL16stbi__parse_zlibP10stbi__zbufi
	addq	$32, %rsp
	popq	%rbp
	ret
	.seh_endproc
	.globl	stbi_zlib_decode_malloc_guesssize
	.def	stbi_zlib_decode_malloc_guesssize;	.scl	2;	.type	32;	.endef
	.seh_proc	stbi_zlib_decode_malloc_guesssize
stbi_zlib_decode_malloc_guesssize:
	pushq	%rbp
	.seh_pushreg	%rbp
	movl	$4160, %eax
	call	___chkstk_ms
	subq	%rax, %rsp
	.seh_stackalloc	4160
	leaq	128(%rsp), %rbp
	.seh_setframe	%rbp, 128
	.seh_endprologue
	movq	%rcx, 4048(%rbp)
	movl	%edx, 4056(%rbp)
	movl	%r8d, 4064(%rbp)
	movq	%r9, 4072(%rbp)
	movl	4064(%rbp), %eax
	cltq
	movq	%rax, %rcx
	call	_ZL12stbi__mallocy
	movq	%rax, 4024(%rbp)
	cmpq	$0, 4024(%rbp)
	jne	.L795
	movl	$0, %eax
	jmp	.L799
.L795:
	movq	4048(%rbp), %rax
	movq	%rax, -80(%rbp)
	movl	4056(%rbp), %eax
	cltq
	movq	4048(%rbp), %rdx
	addq	%rdx, %rax
	movq	%rax, -72(%rbp)
	movl	4064(%rbp), %ecx
	movq	4024(%rbp), %rdx
	leaq	-80(%rbp), %rax
	movl	$1, 32(%rsp)
	movl	$1, %r9d
	movl	%ecx, %r8d
	movq	%rax, %rcx
	call	_ZL13stbi__do_zlibP10stbi__zbufPciii
	testl	%eax, %eax
	setne	%al
	testb	%al, %al
	je	.L797
	cmpq	$0, 4072(%rbp)
	je	.L798
	movq	-56(%rbp), %rdx
	movq	-48(%rbp), %rax
	subq	%rax, %rdx
	movq	%rdx, %rax
	movl	%eax, %edx
	movq	4072(%rbp), %rax
	movl	%edx, (%rax)
.L798:
	movq	-48(%rbp), %rax
	jmp	.L799
.L797:
	movq	-48(%rbp), %rax
	movq	%rax, %rcx
	call	free
	movl	$0, %eax
.L799:
	addq	$4160, %rsp
	popq	%rbp
	ret
	.seh_endproc
	.globl	stbi_zlib_decode_malloc
	.def	stbi_zlib_decode_malloc;	.scl	2;	.type	32;	.endef
	.seh_proc	stbi_zlib_decode_malloc
stbi_zlib_decode_malloc:
	pushq	%rbp
	.seh_pushreg	%rbp
	movq	%rsp, %rbp
	.seh_setframe	%rbp, 0
	subq	$32, %rsp
	.seh_stackalloc	32
	.seh_endprologue
	movq	%rcx, 16(%rbp)
	movl	%edx, 24(%rbp)
	movq	%r8, 32(%rbp)
	movq	32(%rbp), %rdx
	movl	24(%rbp), %eax
	movq	%rdx, %r9
	movl	$16384, %r8d
	movl	%eax, %edx
	movq	16(%rbp), %rcx
	call	stbi_zlib_decode_malloc_guesssize
	addq	$32, %rsp
	popq	%rbp
	ret
	.seh_endproc
	.globl	stbi_zlib_decode_malloc_guesssize_headerflag
	.def	stbi_zlib_decode_malloc_guesssize_headerflag;	.scl	2;	.type	32;	.endef
	.seh_proc	stbi_zlib_decode_malloc_guesssize_headerflag
stbi_zlib_decode_malloc_guesssize_headerflag:
	pushq	%rbp
	.seh_pushreg	%rbp
	movl	$4160, %eax
	call	___chkstk_ms
	subq	%rax, %rsp
	.seh_stackalloc	4160
	leaq	128(%rsp), %rbp
	.seh_setframe	%rbp, 128
	.seh_endprologue
	movq	%rcx, 4048(%rbp)
	movl	%edx, 4056(%rbp)
	movl	%r8d, 4064(%rbp)
	movq	%r9, 4072(%rbp)
	movl	4064(%rbp), %eax
	cltq
	movq	%rax, %rcx
	call	_ZL12stbi__mallocy
	movq	%rax, 4024(%rbp)
	cmpq	$0, 4024(%rbp)
	jne	.L803
	movl	$0, %eax
	jmp	.L807
.L803:
	movq	4048(%rbp), %rax
	movq	%rax, -80(%rbp)
	movl	4056(%rbp), %eax
	cltq
	movq	4048(%rbp), %rdx
	addq	%rdx, %rax
	movq	%rax, -72(%rbp)
	movl	4064(%rbp), %r8d
	movq	4024(%rbp), %rdx
	leaq	-80(%rbp), %rax
	movl	4080(%rbp), %ecx
	movl	%ecx, 32(%rsp)
	movl	$1, %r9d
	movq	%rax, %rcx
	call	_ZL13stbi__do_zlibP10stbi__zbufPciii
	testl	%eax, %eax
	setne	%al
	testb	%al, %al
	je	.L805
	cmpq	$0, 4072(%rbp)
	je	.L806
	movq	-56(%rbp), %rdx
	movq	-48(%rbp), %rax
	subq	%rax, %rdx
	movq	%rdx, %rax
	movl	%eax, %edx
	movq	4072(%rbp), %rax
	movl	%edx, (%rax)
.L806:
	movq	-48(%rbp), %rax
	jmp	.L807
.L805:
	movq	-48(%rbp), %rax
	movq	%rax, %rcx
	call	free
	movl	$0, %eax
.L807:
	addq	$4160, %rsp
	popq	%rbp
	ret
	.seh_endproc
	.globl	stbi_zlib_decode_buffer
	.def	stbi_zlib_decode_buffer;	.scl	2;	.type	32;	.endef
	.seh_proc	stbi_zlib_decode_buffer
stbi_zlib_decode_buffer:
	pushq	%rbp
	.seh_pushreg	%rbp
	movl	$4144, %eax
	call	___chkstk_ms
	subq	%rax, %rsp
	.seh_stackalloc	4144
	leaq	128(%rsp), %rbp
	.seh_setframe	%rbp, 128
	.seh_endprologue
	movq	%rcx, 4032(%rbp)
	movl	%edx, 4040(%rbp)
	movq	%r8, 4048(%rbp)
	movl	%r9d, 4056(%rbp)
	movq	4048(%rbp), %rax
	movq	%rax, -80(%rbp)
	movl	4056(%rbp), %eax
	cltq
	movq	4048(%rbp), %rdx
	addq	%rdx, %rax
	movq	%rax, -72(%rbp)
	movl	4040(%rbp), %edx
	leaq	-80(%rbp), %rax
	movl	$1, 32(%rsp)
	movl	$0, %r9d
	movl	%edx, %r8d
	movq	4032(%rbp), %rdx
	movq	%rax, %rcx
	call	_ZL13stbi__do_zlibP10stbi__zbufPciii
	testl	%eax, %eax
	setne	%al
	testb	%al, %al
	je	.L809
	movq	-56(%rbp), %rdx
	movq	-48(%rbp), %rax
	subq	%rax, %rdx
	movq	%rdx, %rax
	jmp	.L811
.L809:
	movl	$-1, %eax
.L811:
	addq	$4144, %rsp
	popq	%rbp
	ret
	.seh_endproc
	.globl	stbi_zlib_decode_noheader_malloc
	.def	stbi_zlib_decode_noheader_malloc;	.scl	2;	.type	32;	.endef
	.seh_proc	stbi_zlib_decode_noheader_malloc
stbi_zlib_decode_noheader_malloc:
	pushq	%rbp
	.seh_pushreg	%rbp
	movl	$4160, %eax
	call	___chkstk_ms
	subq	%rax, %rsp
	.seh_stackalloc	4160
	leaq	128(%rsp), %rbp
	.seh_setframe	%rbp, 128
	.seh_endprologue
	movq	%rcx, 4048(%rbp)
	movl	%edx, 4056(%rbp)
	movq	%r8, 4064(%rbp)
	movl	$16384, %ecx
	call	_ZL12stbi__mallocy
	movq	%rax, 4024(%rbp)
	cmpq	$0, 4024(%rbp)
	jne	.L813
	movl	$0, %eax
	jmp	.L817
.L813:
	movq	4048(%rbp), %rax
	movq	%rax, -80(%rbp)
	movl	4056(%rbp), %eax
	cltq
	movq	4048(%rbp), %rdx
	addq	%rdx, %rax
	movq	%rax, -72(%rbp)
	movq	4024(%rbp), %rdx
	leaq	-80(%rbp), %rax
	movl	$0, 32(%rsp)
	movl	$1, %r9d
	movl	$16384, %r8d
	movq	%rax, %rcx
	call	_ZL13stbi__do_zlibP10stbi__zbufPciii
	testl	%eax, %eax
	setne	%al
	testb	%al, %al
	je	.L815
	cmpq	$0, 4064(%rbp)
	je	.L816
	movq	-56(%rbp), %rdx
	movq	-48(%rbp), %rax
	subq	%rax, %rdx
	movq	%rdx, %rax
	movl	%eax, %edx
	movq	4064(%rbp), %rax
	movl	%edx, (%rax)
.L816:
	movq	-48(%rbp), %rax
	jmp	.L817
.L815:
	movq	-48(%rbp), %rax
	movq	%rax, %rcx
	call	free
	movl	$0, %eax
.L817:
	addq	$4160, %rsp
	popq	%rbp
	ret
	.seh_endproc
	.globl	stbi_zlib_decode_noheader_buffer
	.def	stbi_zlib_decode_noheader_buffer;	.scl	2;	.type	32;	.endef
	.seh_proc	stbi_zlib_decode_noheader_buffer
stbi_zlib_decode_noheader_buffer:
	pushq	%rbp
	.seh_pushreg	%rbp
	movl	$4144, %eax
	call	___chkstk_ms
	subq	%rax, %rsp
	.seh_stackalloc	4144
	leaq	128(%rsp), %rbp
	.seh_setframe	%rbp, 128
	.seh_endprologue
	movq	%rcx, 4032(%rbp)
	movl	%edx, 4040(%rbp)
	movq	%r8, 4048(%rbp)
	movl	%r9d, 4056(%rbp)
	movq	4048(%rbp), %rax
	movq	%rax, -80(%rbp)
	movl	4056(%rbp), %eax
	cltq
	movq	4048(%rbp), %rdx
	addq	%rdx, %rax
	movq	%rax, -72(%rbp)
	movl	4040(%rbp), %edx
	leaq	-80(%rbp), %rax
	movl	$0, 32(%rsp)
	movl	$0, %r9d
	movl	%edx, %r8d
	movq	4032(%rbp), %rdx
	movq	%rax, %rcx
	call	_ZL13stbi__do_zlibP10stbi__zbufPciii
	testl	%eax, %eax
	setne	%al
	testb	%al, %al
	je	.L819
	movq	-56(%rbp), %rdx
	movq	-48(%rbp), %rax
	subq	%rax, %rdx
	movq	%rdx, %rax
	jmp	.L821
.L819:
	movl	$-1, %eax
.L821:
	addq	$4144, %rsp
	popq	%rbp
	ret
	.seh_endproc
	.def	_ZL22stbi__get_chunk_headerP13stbi__context;	.scl	3;	.type	32;	.endef
	.seh_proc	_ZL22stbi__get_chunk_headerP13stbi__context
_ZL22stbi__get_chunk_headerP13stbi__context:
	pushq	%rbp
	.seh_pushreg	%rbp
	movq	%rsp, %rbp
	.seh_setframe	%rbp, 0
	subq	$48, %rsp
	.seh_stackalloc	48
	.seh_endprologue
	movq	%rcx, 16(%rbp)
	movq	16(%rbp), %rcx
	call	_ZL13stbi__get32beP13stbi__context
	movl	%eax, -8(%rbp)
	movq	16(%rbp), %rcx
	call	_ZL13stbi__get32beP13stbi__context
	movl	%eax, -4(%rbp)
	movq	-8(%rbp), %rax
	addq	$48, %rsp
	popq	%rbp
	ret
	.seh_endproc
	.data
	.align 8
_ZZL22stbi__check_png_headerP13stbi__contextE7png_sig:
	.byte	-119
	.byte	80
	.byte	78
	.byte	71
	.byte	13
	.byte	10
	.byte	26
	.byte	10
	.section .rdata,"dr"
.LC54:
	.ascii "bad png sig\0"
	.text
	.def	_ZL22stbi__check_png_headerP13stbi__context;	.scl	3;	.type	32;	.endef
	.seh_proc	_ZL22stbi__check_png_headerP13stbi__context
_ZL22stbi__check_png_headerP13stbi__context:
	pushq	%rbp
	.seh_pushreg	%rbp
	movq	%rsp, %rbp
	.seh_setframe	%rbp, 0
	subq	$48, %rsp
	.seh_stackalloc	48
	.seh_endprologue
	movq	%rcx, 16(%rbp)
	movl	$0, -4(%rbp)
.L828:
	cmpl	$7, -4(%rbp)
	jg	.L825
	movq	16(%rbp), %rcx
	call	_ZL10stbi__get8P13stbi__context
	movl	%eax, %ecx
	movl	-4(%rbp), %eax
	cltq
	leaq	_ZZL22stbi__check_png_headerP13stbi__contextE7png_sig(%rip), %rdx
	movzbl	(%rax,%rdx), %eax
	cmpb	%al, %cl
	setne	%al
	testb	%al, %al
	je	.L826
	leaq	.LC54(%rip), %rcx
	call	_ZL9stbi__errPKc
	jmp	.L827
.L826:
	addl	$1, -4(%rbp)
	jmp	.L828
.L825:
	movl	$1, %eax
.L827:
	addq	$48, %rsp
	popq	%rbp
	ret
	.seh_endproc
	.data
_ZL16first_row_filter:
	.byte	0
	.byte	1
	.byte	0
	.byte	5
	.byte	6
	.text
	.def	_ZL11stbi__paethiii;	.scl	3;	.type	32;	.endef
	.seh_proc	_ZL11stbi__paethiii
_ZL11stbi__paethiii:
	pushq	%rbp
	.seh_pushreg	%rbp
	movq	%rsp, %rbp
	.seh_setframe	%rbp, 0
	subq	$16, %rsp
	.seh_stackalloc	16
	.seh_endprologue
	movl	%ecx, 16(%rbp)
	movl	%edx, 24(%rbp)
	movl	%r8d, 32(%rbp)
	movl	16(%rbp), %edx
	movl	24(%rbp), %eax
	addl	%edx, %eax
	subl	32(%rbp), %eax
	movl	%eax, -4(%rbp)
	movl	-4(%rbp), %eax
	subl	16(%rbp), %eax
	movl	%eax, %edx
	movl	%edx, %eax
	sarl	$31, %eax
	xorl	%eax, %edx
	movl	%edx, -8(%rbp)
	subl	%eax, -8(%rbp)
	movl	-4(%rbp), %eax
	subl	24(%rbp), %eax
	movl	%eax, %edx
	movl	%edx, %eax
	sarl	$31, %eax
	xorl	%eax, %edx
	movl	%edx, -12(%rbp)
	subl	%eax, -12(%rbp)
	movl	-4(%rbp), %eax
	subl	32(%rbp), %eax
	movl	%eax, %edx
	movl	%edx, %eax
	sarl	$31, %eax
	xorl	%eax, %edx
	movl	%edx, -16(%rbp)
	subl	%eax, -16(%rbp)
	movl	-8(%rbp), %eax
	cmpl	-12(%rbp), %eax
	jg	.L830
	movl	-8(%rbp), %eax
	cmpl	-16(%rbp), %eax
	jg	.L830
	movl	16(%rbp), %eax
	jmp	.L831
.L830:
	movl	-12(%rbp), %eax
	cmpl	-16(%rbp), %eax
	jg	.L832
	movl	24(%rbp), %eax
	jmp	.L831
.L832:
	movl	32(%rbp), %eax
.L831:
	addq	$16, %rsp
	popq	%rbp
	ret
	.seh_endproc
	.data
	.align 8
_ZL23stbi__depth_scale_table:
	.byte	0
	.byte	-1
	.byte	85
	.byte	0
	.byte	17
	.byte	0
	.byte	0
	.byte	0
	.byte	1
	.section .rdata,"dr"
	.align 8
.LC55:
	.ascii "out_n == s->img_n || out_n == s->img_n+1\0"
.LC56:
	.ascii "not enough pixels\0"
.LC57:
	.ascii "invalid filter\0"
.LC58:
	.ascii "img_width_bytes <= x\0"
.LC59:
	.ascii "img_n+1 == out_n\0"
.LC60:
	.ascii "img_n == 3\0"
	.text
	.def	_ZL26stbi__create_png_image_rawP9stbi__pngPhjijjii;	.scl	3;	.type	32;	.endef
	.seh_proc	_ZL26stbi__create_png_image_rawP9stbi__pngPhjijjii
_ZL26stbi__create_png_image_rawP9stbi__pngPhjijjii:
	pushq	%rbp
	.seh_pushreg	%rbp
	pushq	%rbx
	.seh_pushreg	%rbx
	subq	$152, %rsp
	.seh_stackalloc	152
	leaq	128(%rsp), %rbp
	.seh_setframe	%rbp, 128
	.seh_endprologue
	movq	%rcx, 48(%rbp)
	movq	%rdx, 56(%rbp)
	movl	%r8d, 64(%rbp)
	movl	%r9d, 72(%rbp)
	movq	48(%rbp), %rax
	movq	(%rax), %rax
	movq	%rax, -64(%rbp)
	movl	72(%rbp), %eax
	movl	80(%rbp), %edx
	imull	%edx, %eax
	movl	%eax, -68(%rbp)
	movq	-64(%rbp), %rax
	movl	8(%rax), %eax
	movl	%eax, -72(%rbp)
	movq	-64(%rbp), %rax
	movl	8(%rax), %eax
	cmpl	%eax, 72(%rbp)
	je	.L957
	movq	-64(%rbp), %rax
	movl	8(%rax), %eax
	addl	$1, %eax
	cmpl	%eax, 72(%rbp)
	je	.L957
	movl	$3966, %r8d
	leaq	.LC4(%rip), %rdx
	leaq	.LC55(%rip), %rcx
	call	_assert
	jmp	.L836
.L957:
	nop
.L836:
	movl	80(%rbp), %eax
	imull	88(%rbp), %eax
	movl	72(%rbp), %edx
	imull	%edx, %eax
	movl	%eax, %eax
	movq	%rax, %rcx
	call	_ZL12stbi__mallocy
	movq	%rax, %rdx
	movq	48(%rbp), %rax
	movq	%rdx, 24(%rax)
	movq	48(%rbp), %rax
	movq	24(%rax), %rax
	testq	%rax, %rax
	jne	.L837
	leaq	.LC6(%rip), %rcx
	call	_ZL9stbi__errPKc
	jmp	.L838
.L837:
	movl	-72(%rbp), %eax
	imull	80(%rbp), %eax
	movl	96(%rbp), %edx
	imull	%edx, %eax
	addl	$7, %eax
	shrl	$3, %eax
	movl	%eax, -76(%rbp)
	movl	-76(%rbp), %eax
	addl	$1, %eax
	movl	88(%rbp), %edx
	imull	%edx, %eax
	movl	%eax, -80(%rbp)
	movq	-64(%rbp), %rax
	movl	(%rax), %eax
	cmpl	%eax, 80(%rbp)
	jne	.L839
	movq	-64(%rbp), %rax
	movl	4(%rax), %eax
	cmpl	%eax, 88(%rbp)
	jne	.L839
	movl	64(%rbp), %eax
	cmpl	-80(%rbp), %eax
	je	.L841
	leaq	.LC56(%rip), %rcx
	call	_ZL9stbi__errPKc
	jmp	.L838
.L839:
	movl	64(%rbp), %eax
	cmpl	-80(%rbp), %eax
	jnb	.L841
	leaq	.LC56(%rip), %rcx
	call	_ZL9stbi__errPKc
	jmp	.L838
.L841:
	movl	$0, 8(%rbp)
.L926:
	movl	8(%rbp), %eax
	cmpl	88(%rbp), %eax
	jnb	.L842
	movq	48(%rbp), %rax
	movq	24(%rax), %rdx
	movl	-68(%rbp), %eax
	imull	8(%rbp), %eax
	movl	%eax, %eax
	addq	%rdx, %rax
	movq	%rax, -8(%rbp)
	movl	-68(%rbp), %eax
	negq	%rax
	movq	%rax, %rdx
	movq	-8(%rbp), %rax
	addq	%rdx, %rax
	movq	%rax, -16(%rbp)
	movq	56(%rbp), %rax
	leaq	1(%rax), %rdx
	movq	%rdx, 56(%rbp)
	movzbl	(%rax), %eax
	movzbl	%al, %eax
	movl	%eax, -20(%rbp)
	movl	-72(%rbp), %eax
	movl	%eax, -24(%rbp)
	movl	80(%rbp), %eax
	movl	%eax, -28(%rbp)
	cmpl	$4, -20(%rbp)
	jle	.L843
	leaq	.LC57(%rip), %rcx
	call	_ZL9stbi__errPKc
	jmp	.L838
.L843:
	cmpl	$7, 96(%rbp)
	jg	.L844
	movl	-76(%rbp), %eax
	cmpl	80(%rbp), %eax
	jbe	.L847
	movl	$3988, %r8d
	leaq	.LC4(%rip), %rdx
	leaq	.LC58(%rip), %rcx
	call	_assert
.L847:
	movl	72(%rbp), %eax
	imull	80(%rbp), %eax
	subl	-76(%rbp), %eax
	movl	%eax, %eax
	addq	%rax, -8(%rbp)
	movl	$1, -24(%rbp)
	movl	-76(%rbp), %eax
	movl	%eax, -28(%rbp)
.L844:
	cmpl	$0, 8(%rbp)
	jne	.L848
	movl	-20(%rbp), %eax
	cltq
	leaq	_ZL16first_row_filter(%rip), %rdx
	movzbl	(%rax,%rdx), %eax
	movzbl	%al, %eax
	movl	%eax, -20(%rbp)
.L848:
	movl	$0, 4(%rbp)
.L859:
	movl	4(%rbp), %eax
	cmpl	-24(%rbp), %eax
	jge	.L849
	cmpl	$6, -20(%rbp)
	ja	.L850
	movl	-20(%rbp), %eax
	leaq	0(,%rax,4), %rdx
	leaq	.L852(%rip), %rax
	movl	(%rdx,%rax), %eax
	cltq
	leaq	.L852(%rip), %rdx
	addq	%rdx, %rax
	jmp	*%rax
	.section .rdata,"dr"
	.align 4
.L852:
	.long	.L858-.L852
	.long	.L857-.L852
	.long	.L856-.L852
	.long	.L855-.L852
	.long	.L854-.L852
	.long	.L853-.L852
	.long	.L851-.L852
	.text
.L858:
	movl	4(%rbp), %eax
	cltq
	movq	56(%rbp), %rdx
	addq	%rdx, %rax
	movl	4(%rbp), %edx
	movslq	%edx, %rdx
	movq	-8(%rbp), %rcx
	addq	%rcx, %rdx
	movzbl	(%rax), %eax
	movb	%al, (%rdx)
	jmp	.L850
.L857:
	movl	4(%rbp), %eax
	cltq
	movq	56(%rbp), %rdx
	addq	%rdx, %rax
	movl	4(%rbp), %edx
	movslq	%edx, %rdx
	movq	-8(%rbp), %rcx
	addq	%rcx, %rdx
	movzbl	(%rax), %eax
	movb	%al, (%rdx)
	jmp	.L850
.L856:
	movl	4(%rbp), %eax
	cltq
	movq	56(%rbp), %rdx
	addq	%rdx, %rax
	movzbl	(%rax), %edx
	movl	4(%rbp), %eax
	cltq
	movq	-16(%rbp), %rcx
	addq	%rcx, %rax
	movzbl	(%rax), %eax
	movl	4(%rbp), %ecx
	movslq	%ecx, %rcx
	movq	-8(%rbp), %r8
	addq	%r8, %rcx
	addl	%edx, %eax
	movb	%al, (%rcx)
	jmp	.L850
.L855:
	movl	4(%rbp), %eax
	cltq
	movq	56(%rbp), %rdx
	addq	%rdx, %rax
	movzbl	(%rax), %eax
	movl	4(%rbp), %edx
	movslq	%edx, %rdx
	movq	-16(%rbp), %rcx
	addq	%rcx, %rdx
	movzbl	(%rdx), %edx
	movzbl	%dl, %edx
	sarl	%edx
	movl	%edx, %r8d
	movl	4(%rbp), %edx
	movslq	%edx, %rdx
	movq	-8(%rbp), %rcx
	addq	%rcx, %rdx
	addl	%r8d, %eax
	movb	%al, (%rdx)
	jmp	.L850
.L854:
	movl	4(%rbp), %eax
	cltq
	movq	56(%rbp), %rdx
	addq	%rdx, %rax
	movzbl	(%rax), %ebx
	movl	4(%rbp), %eax
	cltq
	movq	-16(%rbp), %rdx
	addq	%rdx, %rax
	movzbl	(%rax), %eax
	movzbl	%al, %eax
	movl	$0, %r8d
	movl	%eax, %edx
	movl	$0, %ecx
	call	_ZL11stbi__paethiii
	movl	%eax, %ecx
	movl	4(%rbp), %eax
	cltq
	movq	-8(%rbp), %rdx
	addq	%rax, %rdx
	leal	(%rbx,%rcx), %eax
	movb	%al, (%rdx)
	jmp	.L850
.L853:
	movl	4(%rbp), %eax
	cltq
	movq	56(%rbp), %rdx
	addq	%rdx, %rax
	movl	4(%rbp), %edx
	movslq	%edx, %rdx
	movq	-8(%rbp), %rcx
	addq	%rcx, %rdx
	movzbl	(%rax), %eax
	movb	%al, (%rdx)
	jmp	.L850
.L851:
	movl	4(%rbp), %eax
	cltq
	movq	56(%rbp), %rdx
	addq	%rdx, %rax
	movl	4(%rbp), %edx
	movslq	%edx, %rdx
	movq	-8(%rbp), %rcx
	addq	%rcx, %rdx
	movzbl	(%rax), %eax
	movb	%al, (%rdx)
	nop
.L850:
	addl	$1, 4(%rbp)
	jmp	.L859
.L849:
	cmpl	$8, 96(%rbp)
	jne	.L860
	movl	-72(%rbp), %eax
	cmpl	72(%rbp), %eax
	je	.L861
	movl	-72(%rbp), %eax
	cltq
	movq	-8(%rbp), %rdx
	addq	%rdx, %rax
	movb	$-1, (%rax)
.L861:
	movl	-72(%rbp), %eax
	cltq
	addq	%rax, 56(%rbp)
	movl	72(%rbp), %eax
	cltq
	addq	%rax, -8(%rbp)
	movl	72(%rbp), %eax
	cltq
	addq	%rax, -16(%rbp)
	jmp	.L862
.L860:
	addq	$1, 56(%rbp)
	addq	$1, -8(%rbp)
	addq	$1, -16(%rbp)
.L862:
	cmpl	$7, 96(%rbp)
	jle	.L863
	movl	-72(%rbp), %eax
	cmpl	72(%rbp), %eax
	jne	.L864
.L863:
	movl	-28(%rbp), %eax
	subl	$1, %eax
	movl	-72(%rbp), %edx
	imull	%edx, %eax
	movl	%eax, -84(%rbp)
	cmpl	$6, -20(%rbp)
	ja	.L865
	movl	-20(%rbp), %eax
	leaq	0(,%rax,4), %rdx
	leaq	.L867(%rip), %rax
	movl	(%rdx,%rax), %eax
	cltq
	leaq	.L867(%rip), %rdx
	addq	%rdx, %rax
	jmp	*%rax
	.section .rdata,"dr"
	.align 4
.L867:
	.long	.L873-.L867
	.long	.L872-.L867
	.long	.L871-.L867
	.long	.L870-.L867
	.long	.L869-.L867
	.long	.L868-.L867
	.long	.L866-.L867
	.text
.L873:
	movl	-84(%rbp), %eax
	movslq	%eax, %rcx
	movq	56(%rbp), %rdx
	movq	-8(%rbp), %rax
	movq	%rcx, %r8
	movq	%rax, %rcx
	call	memcpy
	jmp	.L865
.L872:
	movl	$0, 4(%rbp)
.L875:
	movl	4(%rbp), %eax
	cmpl	-84(%rbp), %eax
	jge	.L958
	movl	4(%rbp), %eax
	cltq
	movq	56(%rbp), %rdx
	addq	%rdx, %rax
	movzbl	(%rax), %edx
	movl	4(%rbp), %eax
	subl	-24(%rbp), %eax
	cltq
	movq	-8(%rbp), %rcx
	addq	%rcx, %rax
	movzbl	(%rax), %eax
	movl	4(%rbp), %ecx
	movslq	%ecx, %rcx
	movq	-8(%rbp), %r8
	addq	%r8, %rcx
	addl	%edx, %eax
	movb	%al, (%rcx)
	addl	$1, 4(%rbp)
	jmp	.L875
.L871:
	movl	$0, 4(%rbp)
.L877:
	movl	4(%rbp), %eax
	cmpl	-84(%rbp), %eax
	jge	.L959
	movl	4(%rbp), %eax
	cltq
	movq	56(%rbp), %rdx
	addq	%rdx, %rax
	movzbl	(%rax), %edx
	movl	4(%rbp), %eax
	cltq
	movq	-16(%rbp), %rcx
	addq	%rcx, %rax
	movzbl	(%rax), %eax
	movl	4(%rbp), %ecx
	movslq	%ecx, %rcx
	movq	-8(%rbp), %r8
	addq	%r8, %rcx
	addl	%edx, %eax
	movb	%al, (%rcx)
	addl	$1, 4(%rbp)
	jmp	.L877
.L870:
	movl	$0, 4(%rbp)
.L879:
	movl	4(%rbp), %eax
	cmpl	-84(%rbp), %eax
	jge	.L960
	movl	4(%rbp), %eax
	cltq
	movq	56(%rbp), %rdx
	addq	%rdx, %rax
	movzbl	(%rax), %eax
	movl	4(%rbp), %edx
	movslq	%edx, %rdx
	movq	-16(%rbp), %rcx
	addq	%rcx, %rdx
	movzbl	(%rdx), %edx
	movzbl	%dl, %ecx
	movl	4(%rbp), %edx
	subl	-24(%rbp), %edx
	movslq	%edx, %rdx
	movq	-8(%rbp), %r8
	addq	%r8, %rdx
	movzbl	(%rdx), %edx
	movzbl	%dl, %edx
	addl	%ecx, %edx
	sarl	%edx
	movl	%edx, %r8d
	movl	4(%rbp), %edx
	movslq	%edx, %rdx
	movq	-8(%rbp), %rcx
	addq	%rcx, %rdx
	addl	%r8d, %eax
	movb	%al, (%rdx)
	addl	$1, 4(%rbp)
	jmp	.L879
.L869:
	movl	$0, 4(%rbp)
.L881:
	movl	4(%rbp), %eax
	cmpl	-84(%rbp), %eax
	jge	.L961
	movl	4(%rbp), %eax
	cltq
	movq	56(%rbp), %rdx
	addq	%rdx, %rax
	movzbl	(%rax), %ebx
	movl	4(%rbp), %eax
	subl	-24(%rbp), %eax
	cltq
	movq	-16(%rbp), %rdx
	addq	%rdx, %rax
	movzbl	(%rax), %eax
	movzbl	%al, %ecx
	movl	4(%rbp), %eax
	cltq
	movq	-16(%rbp), %rdx
	addq	%rdx, %rax
	movzbl	(%rax), %eax
	movzbl	%al, %edx
	movl	4(%rbp), %eax
	subl	-24(%rbp), %eax
	cltq
	movq	-8(%rbp), %r8
	addq	%r8, %rax
	movzbl	(%rax), %eax
	movzbl	%al, %eax
	movl	%ecx, %r8d
	movl	%eax, %ecx
	call	_ZL11stbi__paethiii
	movl	%eax, %ecx
	movl	4(%rbp), %eax
	cltq
	movq	-8(%rbp), %rdx
	addq	%rax, %rdx
	leal	(%rbx,%rcx), %eax
	movb	%al, (%rdx)
	addl	$1, 4(%rbp)
	jmp	.L881
.L868:
	movl	$0, 4(%rbp)
.L883:
	movl	4(%rbp), %eax
	cmpl	-84(%rbp), %eax
	jge	.L962
	movl	4(%rbp), %eax
	cltq
	movq	56(%rbp), %rdx
	addq	%rdx, %rax
	movzbl	(%rax), %eax
	movl	4(%rbp), %edx
	subl	-24(%rbp), %edx
	movslq	%edx, %rdx
	movq	-8(%rbp), %rcx
	addq	%rcx, %rdx
	movzbl	(%rdx), %edx
	movzbl	%dl, %edx
	sarl	%edx
	movl	%edx, %r8d
	movl	4(%rbp), %edx
	movslq	%edx, %rdx
	movq	-8(%rbp), %rcx
	addq	%rcx, %rdx
	addl	%r8d, %eax
	movb	%al, (%rdx)
	addl	$1, 4(%rbp)
	jmp	.L883
.L866:
	movl	$0, 4(%rbp)
.L885:
	movl	4(%rbp), %eax
	cmpl	-84(%rbp), %eax
	jge	.L963
	movl	4(%rbp), %eax
	cltq
	movq	56(%rbp), %rdx
	addq	%rdx, %rax
	movzbl	(%rax), %ebx
	movl	4(%rbp), %eax
	subl	-24(%rbp), %eax
	cltq
	movq	-8(%rbp), %rdx
	addq	%rdx, %rax
	movzbl	(%rax), %eax
	movzbl	%al, %eax
	movl	$0, %r8d
	movl	$0, %edx
	movl	%eax, %ecx
	call	_ZL11stbi__paethiii
	movl	%eax, %ecx
	movl	4(%rbp), %eax
	cltq
	movq	-8(%rbp), %rdx
	addq	%rax, %rdx
	leal	(%rbx,%rcx), %eax
	movb	%al, (%rdx)
	addl	$1, 4(%rbp)
	jmp	.L885
.L958:
	nop
	jmp	.L865
.L959:
	nop
	jmp	.L865
.L960:
	nop
	jmp	.L865
.L961:
	nop
	jmp	.L865
.L962:
	nop
	jmp	.L865
.L963:
	nop
.L865:
	movl	-84(%rbp), %eax
	cltq
	addq	%rax, 56(%rbp)
	jmp	.L886
.L864:
	movl	-72(%rbp), %eax
	addl	$1, %eax
	cmpl	%eax, 72(%rbp)
	je	.L889
	movl	$4041, %r8d
	leaq	.LC4(%rip), %rdx
	leaq	.LC59(%rip), %rcx
	call	_assert
.L889:
	cmpl	$6, -20(%rbp)
	ja	.L886
	movl	-20(%rbp), %eax
	leaq	0(,%rax,4), %rdx
	leaq	.L891(%rip), %rax
	movl	(%rdx,%rax), %eax
	cltq
	leaq	.L891(%rip), %rdx
	addq	%rdx, %rax
	jmp	*%rax
	.section .rdata,"dr"
	.align 4
.L891:
	.long	.L897-.L891
	.long	.L896-.L891
	.long	.L895-.L891
	.long	.L894-.L891
	.long	.L893-.L891
	.long	.L892-.L891
	.long	.L890-.L891
	.text
.L897:
	movl	80(%rbp), %eax
	subl	$1, %eax
	movl	%eax, 12(%rbp)
.L901:
	cmpl	$0, 12(%rbp)
	je	.L964
	movl	$0, 4(%rbp)
.L900:
	movl	4(%rbp), %eax
	cmpl	-72(%rbp), %eax
	jge	.L899
	movl	4(%rbp), %eax
	cltq
	movq	56(%rbp), %rdx
	addq	%rdx, %rax
	movl	4(%rbp), %edx
	movslq	%edx, %rdx
	movq	-8(%rbp), %rcx
	addq	%rcx, %rdx
	movzbl	(%rax), %eax
	movb	%al, (%rdx)
	addl	$1, 4(%rbp)
	jmp	.L900
.L899:
	subl	$1, 12(%rbp)
	movl	-72(%rbp), %eax
	cltq
	movq	-8(%rbp), %rdx
	addq	%rdx, %rax
	movb	$-1, (%rax)
	movl	-72(%rbp), %eax
	cltq
	addq	%rax, 56(%rbp)
	movl	72(%rbp), %eax
	cltq
	addq	%rax, -8(%rbp)
	movl	72(%rbp), %eax
	cltq
	addq	%rax, -16(%rbp)
	jmp	.L901
.L896:
	movl	80(%rbp), %eax
	subl	$1, %eax
	movl	%eax, 12(%rbp)
.L905:
	cmpl	$0, 12(%rbp)
	je	.L965
	movl	$0, 4(%rbp)
.L904:
	movl	4(%rbp), %eax
	cmpl	-72(%rbp), %eax
	jge	.L903
	movl	4(%rbp), %eax
	cltq
	movq	56(%rbp), %rdx
	addq	%rdx, %rax
	movzbl	(%rax), %edx
	movl	4(%rbp), %eax
	subl	72(%rbp), %eax
	cltq
	movq	-8(%rbp), %rcx
	addq	%rcx, %rax
	movzbl	(%rax), %eax
	movl	4(%rbp), %ecx
	movslq	%ecx, %rcx
	movq	-8(%rbp), %r8
	addq	%r8, %rcx
	addl	%edx, %eax
	movb	%al, (%rcx)
	addl	$1, 4(%rbp)
	jmp	.L904
.L903:
	subl	$1, 12(%rbp)
	movl	-72(%rbp), %eax
	cltq
	movq	-8(%rbp), %rdx
	addq	%rdx, %rax
	movb	$-1, (%rax)
	movl	-72(%rbp), %eax
	cltq
	addq	%rax, 56(%rbp)
	movl	72(%rbp), %eax
	cltq
	addq	%rax, -8(%rbp)
	movl	72(%rbp), %eax
	cltq
	addq	%rax, -16(%rbp)
	jmp	.L905
.L895:
	movl	80(%rbp), %eax
	subl	$1, %eax
	movl	%eax, 12(%rbp)
.L909:
	cmpl	$0, 12(%rbp)
	je	.L966
	movl	$0, 4(%rbp)
.L908:
	movl	4(%rbp), %eax
	cmpl	-72(%rbp), %eax
	jge	.L907
	movl	4(%rbp), %eax
	cltq
	movq	56(%rbp), %rdx
	addq	%rdx, %rax
	movzbl	(%rax), %edx
	movl	4(%rbp), %eax
	cltq
	movq	-16(%rbp), %rcx
	addq	%rcx, %rax
	movzbl	(%rax), %eax
	movl	4(%rbp), %ecx
	movslq	%ecx, %rcx
	movq	-8(%rbp), %r8
	addq	%r8, %rcx
	addl	%edx, %eax
	movb	%al, (%rcx)
	addl	$1, 4(%rbp)
	jmp	.L908
.L907:
	subl	$1, 12(%rbp)
	movl	-72(%rbp), %eax
	cltq
	movq	-8(%rbp), %rdx
	addq	%rdx, %rax
	movb	$-1, (%rax)
	movl	-72(%rbp), %eax
	cltq
	addq	%rax, 56(%rbp)
	movl	72(%rbp), %eax
	cltq
	addq	%rax, -8(%rbp)
	movl	72(%rbp), %eax
	cltq
	addq	%rax, -16(%rbp)
	jmp	.L909
.L894:
	movl	80(%rbp), %eax
	subl	$1, %eax
	movl	%eax, 12(%rbp)
.L913:
	cmpl	$0, 12(%rbp)
	je	.L967
	movl	$0, 4(%rbp)
.L912:
	movl	4(%rbp), %eax
	cmpl	-72(%rbp), %eax
	jge	.L911
	movl	4(%rbp), %eax
	cltq
	movq	56(%rbp), %rdx
	addq	%rdx, %rax
	movzbl	(%rax), %eax
	movl	4(%rbp), %edx
	movslq	%edx, %rdx
	movq	-16(%rbp), %rcx
	addq	%rcx, %rdx
	movzbl	(%rdx), %edx
	movzbl	%dl, %ecx
	movl	4(%rbp), %edx
	subl	72(%rbp), %edx
	movslq	%edx, %rdx
	movq	-8(%rbp), %r8
	addq	%r8, %rdx
	movzbl	(%rdx), %edx
	movzbl	%dl, %edx
	addl	%ecx, %edx
	sarl	%edx
	movl	%edx, %r8d
	movl	4(%rbp), %edx
	movslq	%edx, %rdx
	movq	-8(%rbp), %rcx
	addq	%rcx, %rdx
	addl	%r8d, %eax
	movb	%al, (%rdx)
	addl	$1, 4(%rbp)
	jmp	.L912
.L911:
	subl	$1, 12(%rbp)
	movl	-72(%rbp), %eax
	cltq
	movq	-8(%rbp), %rdx
	addq	%rdx, %rax
	movb	$-1, (%rax)
	movl	-72(%rbp), %eax
	cltq
	addq	%rax, 56(%rbp)
	movl	72(%rbp), %eax
	cltq
	addq	%rax, -8(%rbp)
	movl	72(%rbp), %eax
	cltq
	addq	%rax, -16(%rbp)
	jmp	.L913
.L893:
	movl	80(%rbp), %eax
	subl	$1, %eax
	movl	%eax, 12(%rbp)
.L917:
	cmpl	$0, 12(%rbp)
	je	.L968
	movl	$0, 4(%rbp)
.L916:
	movl	4(%rbp), %eax
	cmpl	-72(%rbp), %eax
	jge	.L915
	movl	4(%rbp), %eax
	cltq
	movq	56(%rbp), %rdx
	addq	%rdx, %rax
	movzbl	(%rax), %ebx
	movl	4(%rbp), %eax
	subl	72(%rbp), %eax
	cltq
	movq	-16(%rbp), %rdx
	addq	%rdx, %rax
	movzbl	(%rax), %eax
	movzbl	%al, %ecx
	movl	4(%rbp), %eax
	cltq
	movq	-16(%rbp), %rdx
	addq	%rdx, %rax
	movzbl	(%rax), %eax
	movzbl	%al, %edx
	movl	4(%rbp), %eax
	subl	72(%rbp), %eax
	cltq
	movq	-8(%rbp), %r8
	addq	%r8, %rax
	movzbl	(%rax), %eax
	movzbl	%al, %eax
	movl	%ecx, %r8d
	movl	%eax, %ecx
	call	_ZL11stbi__paethiii
	movl	%eax, %ecx
	movl	4(%rbp), %eax
	cltq
	movq	-8(%rbp), %rdx
	addq	%rax, %rdx
	leal	(%rbx,%rcx), %eax
	movb	%al, (%rdx)
	addl	$1, 4(%rbp)
	jmp	.L916
.L915:
	subl	$1, 12(%rbp)
	movl	-72(%rbp), %eax
	cltq
	movq	-8(%rbp), %rdx
	addq	%rdx, %rax
	movb	$-1, (%rax)
	movl	-72(%rbp), %eax
	cltq
	addq	%rax, 56(%rbp)
	movl	72(%rbp), %eax
	cltq
	addq	%rax, -8(%rbp)
	movl	72(%rbp), %eax
	cltq
	addq	%rax, -16(%rbp)
	jmp	.L917
.L892:
	movl	80(%rbp), %eax
	subl	$1, %eax
	movl	%eax, 12(%rbp)
.L921:
	cmpl	$0, 12(%rbp)
	je	.L969
	movl	$0, 4(%rbp)
.L920:
	movl	4(%rbp), %eax
	cmpl	-72(%rbp), %eax
	jge	.L919
	movl	4(%rbp), %eax
	cltq
	movq	56(%rbp), %rdx
	addq	%rdx, %rax
	movzbl	(%rax), %eax
	movl	4(%rbp), %edx
	subl	72(%rbp), %edx
	movslq	%edx, %rdx
	movq	-8(%rbp), %rcx
	addq	%rcx, %rdx
	movzbl	(%rdx), %edx
	movzbl	%dl, %edx
	sarl	%edx
	movl	%edx, %r8d
	movl	4(%rbp), %edx
	movslq	%edx, %rdx
	movq	-8(%rbp), %rcx
	addq	%rcx, %rdx
	addl	%r8d, %eax
	movb	%al, (%rdx)
	addl	$1, 4(%rbp)
	jmp	.L920
.L919:
	subl	$1, 12(%rbp)
	movl	-72(%rbp), %eax
	cltq
	movq	-8(%rbp), %rdx
	addq	%rdx, %rax
	movb	$-1, (%rax)
	movl	-72(%rbp), %eax
	cltq
	addq	%rax, 56(%rbp)
	movl	72(%rbp), %eax
	cltq
	addq	%rax, -8(%rbp)
	movl	72(%rbp), %eax
	cltq
	addq	%rax, -16(%rbp)
	jmp	.L921
.L890:
	movl	80(%rbp), %eax
	subl	$1, %eax
	movl	%eax, 12(%rbp)
.L925:
	cmpl	$0, 12(%rbp)
	je	.L970
	movl	$0, 4(%rbp)
.L924:
	movl	4(%rbp), %eax
	cmpl	-72(%rbp), %eax
	jge	.L923
	movl	4(%rbp), %eax
	cltq
	movq	56(%rbp), %rdx
	addq	%rdx, %rax
	movzbl	(%rax), %ebx
	movl	4(%rbp), %eax
	subl	72(%rbp), %eax
	cltq
	movq	-8(%rbp), %rdx
	addq	%rdx, %rax
	movzbl	(%rax), %eax
	movzbl	%al, %eax
	movl	$0, %r8d
	movl	$0, %edx
	movl	%eax, %ecx
	call	_ZL11stbi__paethiii
	movl	%eax, %ecx
	movl	4(%rbp), %eax
	cltq
	movq	-8(%rbp), %rdx
	addq	%rax, %rdx
	leal	(%rbx,%rcx), %eax
	movb	%al, (%rdx)
	addl	$1, 4(%rbp)
	jmp	.L924
.L923:
	subl	$1, 12(%rbp)
	movl	-72(%rbp), %eax
	cltq
	movq	-8(%rbp), %rdx
	addq	%rdx, %rax
	movb	$-1, (%rax)
	movl	-72(%rbp), %eax
	cltq
	addq	%rax, 56(%rbp)
	movl	72(%rbp), %eax
	cltq
	addq	%rax, -8(%rbp)
	movl	72(%rbp), %eax
	cltq
	addq	%rax, -16(%rbp)
	jmp	.L925
.L964:
	nop
	jmp	.L886
.L965:
	nop
	jmp	.L886
.L966:
	nop
	jmp	.L886
.L967:
	nop
	jmp	.L886
.L968:
	nop
	jmp	.L886
.L969:
	nop
	jmp	.L886
.L970:
	nop
.L886:
	addl	$1, 8(%rbp)
	jmp	.L926
.L842:
	cmpl	$7, 96(%rbp)
	jg	.L927
	movl	$0, 8(%rbp)
.L956:
	movl	8(%rbp), %eax
	cmpl	88(%rbp), %eax
	jnb	.L927
	movq	48(%rbp), %rax
	movq	24(%rax), %rdx
	movl	-68(%rbp), %eax
	imull	8(%rbp), %eax
	movl	%eax, %eax
	addq	%rdx, %rax
	movq	%rax, -40(%rbp)
	movq	48(%rbp), %rax
	movq	24(%rax), %rdx
	movl	-68(%rbp), %eax
	imull	8(%rbp), %eax
	movl	%eax, %ecx
	movl	72(%rbp), %eax
	imull	80(%rbp), %eax
	movl	%eax, %eax
	addq	%rax, %rcx
	movl	-76(%rbp), %eax
	subq	%rax, %rcx
	movq	%rcx, %rax
	addq	%rdx, %rax
	movq	%rax, -48(%rbp)
	cmpl	$0, 104(%rbp)
	jne	.L929
	movl	96(%rbp), %eax
	cltq
	leaq	_ZL23stbi__depth_scale_table(%rip), %rdx
	movzbl	(%rax,%rdx), %eax
	jmp	.L930
.L929:
	movl	$1, %eax
.L930:
	movb	%al, -85(%rbp)
	cmpl	$4, 96(%rbp)
	jne	.L931
	movl	-72(%rbp), %eax
	imull	80(%rbp), %eax
	movl	%eax, 4(%rbp)
.L933:
	cmpl	$1, 4(%rbp)
	jle	.L932
	movq	-48(%rbp), %rax
	movzbl	(%rax), %eax
	movzbl	%al, %eax
	sarl	$4, %eax
	movl	%eax, %ecx
	movq	-40(%rbp), %rdx
	leaq	1(%rdx), %rax
	movq	%rax, -40(%rbp)
	movl	%ecx, %eax
	mulb	-85(%rbp)
	movb	%al, (%rdx)
	movq	-48(%rbp), %rax
	movzbl	(%rax), %eax
	andl	$15, %eax
	movq	-40(%rbp), %rdx
	leaq	1(%rdx), %rcx
	movq	%rcx, -40(%rbp)
	mulb	-85(%rbp)
	movb	%al, (%rdx)
	subl	$2, 4(%rbp)
	addq	$1, -48(%rbp)
	jmp	.L933
.L932:
	cmpl	$0, 4(%rbp)
	jle	.L934
	movq	-48(%rbp), %rax
	movzbl	(%rax), %eax
	movzbl	%al, %eax
	sarl	$4, %eax
	movl	%eax, %ecx
	movq	-40(%rbp), %rdx
	leaq	1(%rdx), %rax
	movq	%rax, -40(%rbp)
	movl	%ecx, %eax
	mulb	-85(%rbp)
	movb	%al, (%rdx)
	jmp	.L934
.L931:
	cmpl	$2, 96(%rbp)
	jne	.L935
	movl	-72(%rbp), %eax
	imull	80(%rbp), %eax
	movl	%eax, 4(%rbp)
.L937:
	cmpl	$3, 4(%rbp)
	jle	.L936
	movq	-48(%rbp), %rax
	movzbl	(%rax), %eax
	movzbl	%al, %eax
	sarl	$6, %eax
	movl	%eax, %ecx
	movq	-40(%rbp), %rdx
	leaq	1(%rdx), %rax
	movq	%rax, -40(%rbp)
	movl	%ecx, %eax
	mulb	-85(%rbp)
	movb	%al, (%rdx)
	movq	-48(%rbp), %rax
	movzbl	(%rax), %eax
	movzbl	%al, %eax
	sarl	$4, %eax
	andl	$3, %eax
	movq	-40(%rbp), %rdx
	leaq	1(%rdx), %rcx
	movq	%rcx, -40(%rbp)
	mulb	-85(%rbp)
	movb	%al, (%rdx)
	movq	-48(%rbp), %rax
	movzbl	(%rax), %eax
	movzbl	%al, %eax
	sarl	$2, %eax
	andl	$3, %eax
	movq	-40(%rbp), %rdx
	leaq	1(%rdx), %rcx
	movq	%rcx, -40(%rbp)
	mulb	-85(%rbp)
	movb	%al, (%rdx)
	movq	-48(%rbp), %rax
	movzbl	(%rax), %eax
	andl	$3, %eax
	movq	-40(%rbp), %rdx
	leaq	1(%rdx), %rcx
	movq	%rcx, -40(%rbp)
	mulb	-85(%rbp)
	movb	%al, (%rdx)
	subl	$4, 4(%rbp)
	addq	$1, -48(%rbp)
	jmp	.L937
.L936:
	cmpl	$0, 4(%rbp)
	jle	.L938
	movq	-48(%rbp), %rax
	movzbl	(%rax), %eax
	movzbl	%al, %eax
	sarl	$6, %eax
	movl	%eax, %ecx
	movq	-40(%rbp), %rdx
	leaq	1(%rdx), %rax
	movq	%rax, -40(%rbp)
	movl	%ecx, %eax
	mulb	-85(%rbp)
	movb	%al, (%rdx)
.L938:
	cmpl	$1, 4(%rbp)
	jle	.L939
	movq	-48(%rbp), %rax
	movzbl	(%rax), %eax
	movzbl	%al, %eax
	sarl	$4, %eax
	andl	$3, %eax
	movq	-40(%rbp), %rdx
	leaq	1(%rdx), %rcx
	movq	%rcx, -40(%rbp)
	mulb	-85(%rbp)
	movb	%al, (%rdx)
.L939:
	cmpl	$2, 4(%rbp)
	jle	.L934
	movq	-48(%rbp), %rax
	movzbl	(%rax), %eax
	movzbl	%al, %eax
	sarl	$2, %eax
	andl	$3, %eax
	movq	-40(%rbp), %rdx
	leaq	1(%rdx), %rcx
	movq	%rcx, -40(%rbp)
	mulb	-85(%rbp)
	movb	%al, (%rdx)
	jmp	.L934
.L935:
	cmpl	$1, 96(%rbp)
	jne	.L934
	movl	-72(%rbp), %eax
	imull	80(%rbp), %eax
	movl	%eax, 4(%rbp)
.L941:
	cmpl	$7, 4(%rbp)
	jle	.L940
	movq	-48(%rbp), %rax
	movzbl	(%rax), %eax
	movzbl	%al, %eax
	sarl	$7, %eax
	movl	%eax, %ecx
	movq	-40(%rbp), %rdx
	leaq	1(%rdx), %rax
	movq	%rax, -40(%rbp)
	movl	%ecx, %eax
	mulb	-85(%rbp)
	movb	%al, (%rdx)
	movq	-48(%rbp), %rax
	movzbl	(%rax), %eax
	movzbl	%al, %eax
	sarl	$6, %eax
	andl	$1, %eax
	movq	-40(%rbp), %rdx
	leaq	1(%rdx), %rcx
	movq	%rcx, -40(%rbp)
	mulb	-85(%rbp)
	movb	%al, (%rdx)
	movq	-48(%rbp), %rax
	movzbl	(%rax), %eax
	movzbl	%al, %eax
	sarl	$5, %eax
	andl	$1, %eax
	movq	-40(%rbp), %rdx
	leaq	1(%rdx), %rcx
	movq	%rcx, -40(%rbp)
	mulb	-85(%rbp)
	movb	%al, (%rdx)
	movq	-48(%rbp), %rax
	movzbl	(%rax), %eax
	movzbl	%al, %eax
	sarl	$4, %eax
	andl	$1, %eax
	movq	-40(%rbp), %rdx
	leaq	1(%rdx), %rcx
	movq	%rcx, -40(%rbp)
	mulb	-85(%rbp)
	movb	%al, (%rdx)
	movq	-48(%rbp), %rax
	movzbl	(%rax), %eax
	movzbl	%al, %eax
	sarl	$3, %eax
	andl	$1, %eax
	movq	-40(%rbp), %rdx
	leaq	1(%rdx), %rcx
	movq	%rcx, -40(%rbp)
	mulb	-85(%rbp)
	movb	%al, (%rdx)
	movq	-48(%rbp), %rax
	movzbl	(%rax), %eax
	movzbl	%al, %eax
	sarl	$2, %eax
	andl	$1, %eax
	movq	-40(%rbp), %rdx
	leaq	1(%rdx), %rcx
	movq	%rcx, -40(%rbp)
	mulb	-85(%rbp)
	movb	%al, (%rdx)
	movq	-48(%rbp), %rax
	movzbl	(%rax), %eax
	movzbl	%al, %eax
	sarl	%eax
	andl	$1, %eax
	movq	-40(%rbp), %rdx
	leaq	1(%rdx), %rcx
	movq	%rcx, -40(%rbp)
	mulb	-85(%rbp)
	movb	%al, (%rdx)
	movq	-48(%rbp), %rax
	movzbl	(%rax), %eax
	andl	$1, %eax
	movq	-40(%rbp), %rdx
	leaq	1(%rdx), %rcx
	movq	%rcx, -40(%rbp)
	mulb	-85(%rbp)
	movb	%al, (%rdx)
	subl	$8, 4(%rbp)
	addq	$1, -48(%rbp)
	jmp	.L941
.L940:
	cmpl	$0, 4(%rbp)
	jle	.L942
	movq	-48(%rbp), %rax
	movzbl	(%rax), %eax
	movzbl	%al, %eax
	sarl	$7, %eax
	movl	%eax, %ecx
	movq	-40(%rbp), %rdx
	leaq	1(%rdx), %rax
	movq	%rax, -40(%rbp)
	movl	%ecx, %eax
	mulb	-85(%rbp)
	movb	%al, (%rdx)
.L942:
	cmpl	$1, 4(%rbp)
	jle	.L943
	movq	-48(%rbp), %rax
	movzbl	(%rax), %eax
	movzbl	%al, %eax
	sarl	$6, %eax
	andl	$1, %eax
	movq	-40(%rbp), %rdx
	leaq	1(%rdx), %rcx
	movq	%rcx, -40(%rbp)
	mulb	-85(%rbp)
	movb	%al, (%rdx)
.L943:
	cmpl	$2, 4(%rbp)
	jle	.L944
	movq	-48(%rbp), %rax
	movzbl	(%rax), %eax
	movzbl	%al, %eax
	sarl	$5, %eax
	andl	$1, %eax
	movq	-40(%rbp), %rdx
	leaq	1(%rdx), %rcx
	movq	%rcx, -40(%rbp)
	mulb	-85(%rbp)
	movb	%al, (%rdx)
.L944:
	cmpl	$3, 4(%rbp)
	jle	.L945
	movq	-48(%rbp), %rax
	movzbl	(%rax), %eax
	movzbl	%al, %eax
	sarl	$4, %eax
	andl	$1, %eax
	movq	-40(%rbp), %rdx
	leaq	1(%rdx), %rcx
	movq	%rcx, -40(%rbp)
	mulb	-85(%rbp)
	movb	%al, (%rdx)
.L945:
	cmpl	$4, 4(%rbp)
	jle	.L946
	movq	-48(%rbp), %rax
	movzbl	(%rax), %eax
	movzbl	%al, %eax
	sarl	$3, %eax
	andl	$1, %eax
	movq	-40(%rbp), %rdx
	leaq	1(%rdx), %rcx
	movq	%rcx, -40(%rbp)
	mulb	-85(%rbp)
	movb	%al, (%rdx)
.L946:
	cmpl	$5, 4(%rbp)
	jle	.L947
	movq	-48(%rbp), %rax
	movzbl	(%rax), %eax
	movzbl	%al, %eax
	sarl	$2, %eax
	andl	$1, %eax
	movq	-40(%rbp), %rdx
	leaq	1(%rdx), %rcx
	movq	%rcx, -40(%rbp)
	mulb	-85(%rbp)
	movb	%al, (%rdx)
.L947:
	cmpl	$6, 4(%rbp)
	jle	.L934
	movq	-48(%rbp), %rax
	movzbl	(%rax), %eax
	movzbl	%al, %eax
	sarl	%eax
	andl	$1, %eax
	movq	-40(%rbp), %rdx
	leaq	1(%rdx), %rcx
	movq	%rcx, -40(%rbp)
	mulb	-85(%rbp)
	movb	%al, (%rdx)
.L934:
	movl	-72(%rbp), %eax
	cmpl	72(%rbp), %eax
	je	.L948
	movq	48(%rbp), %rax
	movq	24(%rax), %rdx
	movl	-68(%rbp), %eax
	imull	8(%rbp), %eax
	movl	%eax, %eax
	addq	%rdx, %rax
	movq	%rax, -96(%rbp)
	cmpl	$1, -72(%rbp)
	jne	.L949
	movl	80(%rbp), %eax
	subl	$1, %eax
	movl	%eax, -52(%rbp)
.L951:
	cmpl	$0, -52(%rbp)
	js	.L948
	movl	-52(%rbp), %eax
	addl	%eax, %eax
	cltq
	leaq	1(%rax), %rdx
	movq	-96(%rbp), %rax
	addq	%rdx, %rax
	movb	$-1, (%rax)
	movl	-52(%rbp), %eax
	cltq
	movq	-96(%rbp), %rdx
	addq	%rdx, %rax
	movl	-52(%rbp), %edx
	addl	%edx, %edx
	movslq	%edx, %rdx
	movq	-96(%rbp), %rcx
	addq	%rcx, %rdx
	movzbl	(%rax), %eax
	movb	%al, (%rdx)
	subl	$1, -52(%rbp)
	jmp	.L951
.L949:
	cmpl	$3, -72(%rbp)
	je	.L954
	movl	$4121, %r8d
	leaq	.LC4(%rip), %rdx
	leaq	.LC60(%rip), %rcx
	call	_assert
.L954:
	movl	80(%rbp), %eax
	subl	$1, %eax
	movl	%eax, -52(%rbp)
.L955:
	cmpl	$0, -52(%rbp)
	js	.L948
	movl	-52(%rbp), %eax
	sall	$2, %eax
	cltq
	leaq	3(%rax), %rdx
	movq	-96(%rbp), %rax
	addq	%rdx, %rax
	movb	$-1, (%rax)
	movl	-52(%rbp), %edx
	movl	%edx, %eax
	addl	%eax, %eax
	addl	%edx, %eax
	cltq
	leaq	2(%rax), %rdx
	movq	-96(%rbp), %rax
	addq	%rdx, %rax
	movl	-52(%rbp), %edx
	sall	$2, %edx
	movslq	%edx, %rdx
	leaq	2(%rdx), %rcx
	movq	-96(%rbp), %rdx
	addq	%rcx, %rdx
	movzbl	(%rax), %eax
	movb	%al, (%rdx)
	movl	-52(%rbp), %edx
	movl	%edx, %eax
	addl	%eax, %eax
	addl	%edx, %eax
	cltq
	leaq	1(%rax), %rdx
	movq	-96(%rbp), %rax
	addq	%rdx, %rax
	movl	-52(%rbp), %edx
	sall	$2, %edx
	movslq	%edx, %rdx
	leaq	1(%rdx), %rcx
	movq	-96(%rbp), %rdx
	addq	%rcx, %rdx
	movzbl	(%rax), %eax
	movb	%al, (%rdx)
	movl	-52(%rbp), %edx
	movl	%edx, %eax
	addl	%eax, %eax
	addl	%edx, %eax
	cltq
	movq	-96(%rbp), %rdx
	addq	%rdx, %rax
	movl	-52(%rbp), %edx
	sall	$2, %edx
	movslq	%edx, %rdx
	movq	-96(%rbp), %rcx
	addq	%rcx, %rdx
	movzbl	(%rax), %eax
	movb	%al, (%rdx)
	subl	$1, -52(%rbp)
	jmp	.L955
.L948:
	addl	$1, 8(%rbp)
	jmp	.L956
.L927:
	movl	$1, %eax
.L838:
	addq	$152, %rsp
	popq	%rbx
	popq	%rbp
	ret
	.seh_endproc
	.def	_ZL22stbi__create_png_imageP9stbi__pngPhjiiii;	.scl	3;	.type	32;	.endef
	.seh_proc	_ZL22stbi__create_png_imageP9stbi__pngPhjiiii
_ZL22stbi__create_png_imageP9stbi__pngPhjiiii:
	pushq	%rbp
	.seh_pushreg	%rbp
	movq	%rsp, %rbp
	.seh_setframe	%rbp, 0
	subq	$240, %rsp
	.seh_stackalloc	240
	.seh_endprologue
	movq	%rcx, 16(%rbp)
	movq	%rdx, 24(%rbp)
	movl	%r8d, 32(%rbp)
	movl	%r9d, 40(%rbp)
	cmpl	$0, 64(%rbp)
	jne	.L972
	movq	16(%rbp), %rax
	movq	(%rax), %rax
	movl	4(%rax), %ecx
	movq	16(%rbp), %rax
	movq	(%rax), %rax
	movl	(%rax), %edx
	movl	40(%rbp), %r9d
	movl	32(%rbp), %r10d
	movq	24(%rbp), %rax
	movl	56(%rbp), %r8d
	movl	%r8d, 56(%rsp)
	movl	48(%rbp), %r8d
	movl	%r8d, 48(%rsp)
	movl	%ecx, 40(%rsp)
	movl	%edx, 32(%rsp)
	movl	%r10d, %r8d
	movq	%rax, %rdx
	movq	16(%rbp), %rcx
	call	_ZL26stbi__create_png_image_rawP9stbi__pngPhjijjii
	jmp	.L973
.L972:
	movq	16(%rbp), %rax
	movq	(%rax), %rax
	movl	(%rax), %edx
	movq	16(%rbp), %rax
	movq	(%rax), %rax
	movl	4(%rax), %eax
	imull	%edx, %eax
	movl	40(%rbp), %edx
	imull	%edx, %eax
	movl	%eax, %eax
	movq	%rax, %rcx
	call	_ZL12stbi__mallocy
	movq	%rax, -24(%rbp)
	movl	$0, -4(%rbp)
.L981:
	cmpl	$6, -4(%rbp)
	jg	.L974
	movl	$0, -80(%rbp)
	movl	$4, -76(%rbp)
	movl	$0, -72(%rbp)
	movl	$2, -68(%rbp)
	movl	$0, -64(%rbp)
	movl	$1, -60(%rbp)
	movl	$0, -56(%rbp)
	movl	$0, -112(%rbp)
	movl	$0, -108(%rbp)
	movl	$4, -104(%rbp)
	movl	$0, -100(%rbp)
	movl	$2, -96(%rbp)
	movl	$0, -92(%rbp)
	movl	$1, -88(%rbp)
	movl	$8, -144(%rbp)
	movl	$8, -140(%rbp)
	movl	$4, -136(%rbp)
	movl	$4, -132(%rbp)
	movl	$2, -128(%rbp)
	movl	$2, -124(%rbp)
	movl	$1, -120(%rbp)
	movl	$8, -176(%rbp)
	movl	$8, -172(%rbp)
	movl	$8, -168(%rbp)
	movl	$4, -164(%rbp)
	movl	$4, -160(%rbp)
	movl	$2, -156(%rbp)
	movl	$2, -152(%rbp)
	movq	16(%rbp), %rax
	movq	(%rax), %rax
	movl	(%rax), %edx
	movl	-4(%rbp), %eax
	cltq
	movl	-80(%rbp,%rax,4), %eax
	subl	%eax, %edx
	movl	-4(%rbp), %eax
	cltq
	movl	-144(%rbp,%rax,4), %eax
	addl	%edx, %eax
	leal	-1(%rax), %edx
	movl	-4(%rbp), %eax
	cltq
	movl	-144(%rbp,%rax,4), %eax
	movl	%eax, %ecx
	movl	%edx, %eax
	movl	$0, %edx
	divl	%ecx
	movl	%eax, -28(%rbp)
	movq	16(%rbp), %rax
	movq	(%rax), %rax
	movl	4(%rax), %edx
	movl	-4(%rbp), %eax
	cltq
	movl	-112(%rbp,%rax,4), %eax
	subl	%eax, %edx
	movl	-4(%rbp), %eax
	cltq
	movl	-176(%rbp,%rax,4), %eax
	addl	%edx, %eax
	leal	-1(%rax), %edx
	movl	-4(%rbp), %eax
	cltq
	movl	-176(%rbp,%rax,4), %eax
	movl	%eax, %ecx
	movl	%edx, %eax
	movl	$0, %edx
	divl	%ecx
	movl	%eax, -32(%rbp)
	cmpl	$0, -28(%rbp)
	je	.L975
	cmpl	$0, -32(%rbp)
	je	.L975
	movq	16(%rbp), %rax
	movq	(%rax), %rax
	movl	8(%rax), %eax
	imull	-28(%rbp), %eax
	imull	48(%rbp), %eax
	addl	$7, %eax
	sarl	$3, %eax
	addl	$1, %eax
	imull	-32(%rbp), %eax
	movl	%eax, -36(%rbp)
	movl	-32(%rbp), %ecx
	movl	-28(%rbp), %edx
	movl	40(%rbp), %r9d
	movl	32(%rbp), %r10d
	movq	24(%rbp), %rax
	movl	56(%rbp), %r8d
	movl	%r8d, 56(%rsp)
	movl	48(%rbp), %r8d
	movl	%r8d, 48(%rsp)
	movl	%ecx, 40(%rsp)
	movl	%edx, 32(%rsp)
	movl	%r10d, %r8d
	movq	%rax, %rdx
	movq	16(%rbp), %rcx
	call	_ZL26stbi__create_png_image_rawP9stbi__pngPhjijjii
	testl	%eax, %eax
	sete	%al
	testb	%al, %al
	je	.L976
	movq	-24(%rbp), %rax
	movq	%rax, %rcx
	call	free
	movl	$0, %eax
	jmp	.L973
.L976:
	movl	$0, -12(%rbp)
.L980:
	movl	-12(%rbp), %eax
	cmpl	-32(%rbp), %eax
	jge	.L977
	movl	$0, -8(%rbp)
.L979:
	movl	-8(%rbp), %eax
	cmpl	-28(%rbp), %eax
	jge	.L978
	movl	-4(%rbp), %eax
	cltq
	movl	-176(%rbp,%rax,4), %eax
	imull	-12(%rbp), %eax
	movl	%eax, %edx
	movl	-4(%rbp), %eax
	cltq
	movl	-112(%rbp,%rax,4), %eax
	addl	%edx, %eax
	movl	%eax, -40(%rbp)
	movl	-4(%rbp), %eax
	cltq
	movl	-144(%rbp,%rax,4), %eax
	imull	-8(%rbp), %eax
	movl	%eax, %edx
	movl	-4(%rbp), %eax
	cltq
	movl	-80(%rbp,%rax,4), %eax
	addl	%edx, %eax
	movl	%eax, -44(%rbp)
	movl	40(%rbp), %eax
	movslq	%eax, %rcx
	movq	16(%rbp), %rax
	movq	24(%rax), %rdx
	movl	-12(%rbp), %eax
	imull	-28(%rbp), %eax
	movl	-8(%rbp), %r8d
	addl	%r8d, %eax
	imull	40(%rbp), %eax
	cltq
	addq	%rax, %rdx
	movq	16(%rbp), %rax
	movq	(%rax), %rax
	movl	(%rax), %r8d
	movl	-40(%rbp), %eax
	imull	%r8d, %eax
	movl	40(%rbp), %r8d
	imull	%r8d, %eax
	movl	%eax, %r8d
	movl	-44(%rbp), %eax
	imull	40(%rbp), %eax
	cltq
	addq	%rax, %r8
	movq	-24(%rbp), %rax
	addq	%r8, %rax
	movq	%rcx, %r8
	movq	%rax, %rcx
	call	memcpy
	addl	$1, -8(%rbp)
	jmp	.L979
.L978:
	addl	$1, -12(%rbp)
	jmp	.L980
.L977:
	movq	16(%rbp), %rax
	movq	24(%rax), %rax
	movq	%rax, %rcx
	call	free
	movl	-36(%rbp), %eax
	addq	%rax, 24(%rbp)
	movl	-36(%rbp), %eax
	subl	%eax, 32(%rbp)
.L975:
	addl	$1, -4(%rbp)
	jmp	.L981
.L974:
	movq	16(%rbp), %rax
	movq	-24(%rbp), %rdx
	movq	%rdx, 24(%rax)
	movl	$1, %eax
.L973:
	addq	$240, %rsp
	popq	%rbp
	ret
	.seh_endproc
	.section .rdata,"dr"
.LC61:
	.ascii "out_n == 2 || out_n == 4\0"
	.text
	.def	_ZL26stbi__compute_transparencyP9stbi__pngPhi;	.scl	3;	.type	32;	.endef
	.seh_proc	_ZL26stbi__compute_transparencyP9stbi__pngPhi
_ZL26stbi__compute_transparencyP9stbi__pngPhi:
	pushq	%rbp
	.seh_pushreg	%rbp
	movq	%rsp, %rbp
	.seh_setframe	%rbp, 0
	subq	$64, %rsp
	.seh_stackalloc	64
	.seh_endprologue
	movq	%rcx, 16(%rbp)
	movq	%rdx, 24(%rbp)
	movl	%r8d, 32(%rbp)
	movq	16(%rbp), %rax
	movq	(%rax), %rax
	movq	%rax, -24(%rbp)
	movq	-24(%rbp), %rax
	movl	(%rax), %edx
	movq	-24(%rbp), %rax
	movl	4(%rax), %eax
	imull	%edx, %eax
	movl	%eax, -28(%rbp)
	movq	16(%rbp), %rax
	movq	24(%rax), %rax
	movq	%rax, -16(%rbp)
	cmpl	$2, 32(%rbp)
	je	.L994
	cmpl	$4, 32(%rbp)
	je	.L994
	movl	$4186, %r8d
	leaq	.LC4(%rip), %rdx
	leaq	.LC61(%rip), %rcx
	call	_assert
	jmp	.L985
.L994:
	nop
.L985:
	cmpl	$2, 32(%rbp)
	jne	.L986
	movl	$0, -4(%rbp)
.L990:
	movl	-4(%rbp), %eax
	cmpl	-28(%rbp), %eax
	jnb	.L987
	movq	-16(%rbp), %rax
	movzbl	(%rax), %edx
	movq	24(%rbp), %rax
	movzbl	(%rax), %eax
	cmpb	%al, %dl
	jne	.L988
	movl	$0, %edx
	jmp	.L989
.L988:
	movl	$-1, %edx
.L989:
	movq	-16(%rbp), %rax
	addq	$1, %rax
	movb	%dl, (%rax)
	addq	$2, -16(%rbp)
	addl	$1, -4(%rbp)
	jmp	.L990
.L986:
	movl	$0, -4(%rbp)
.L992:
	movl	-4(%rbp), %eax
	cmpl	-28(%rbp), %eax
	jnb	.L987
	movq	-16(%rbp), %rax
	movzbl	(%rax), %edx
	movq	24(%rbp), %rax
	movzbl	(%rax), %eax
	cmpb	%al, %dl
	jne	.L991
	movq	-16(%rbp), %rax
	addq	$1, %rax
	movzbl	(%rax), %edx
	movq	24(%rbp), %rax
	addq	$1, %rax
	movzbl	(%rax), %eax
	cmpb	%al, %dl
	jne	.L991
	movq	-16(%rbp), %rax
	addq	$2, %rax
	movzbl	(%rax), %edx
	movq	24(%rbp), %rax
	addq	$2, %rax
	movzbl	(%rax), %eax
	cmpb	%al, %dl
	jne	.L991
	movq	-16(%rbp), %rax
	addq	$3, %rax
	movb	$0, (%rax)
.L991:
	addq	$4, -16(%rbp)
	addl	$1, -4(%rbp)
	jmp	.L992
.L987:
	movl	$1, %eax
	addq	$64, %rsp
	popq	%rbp
	ret
	.seh_endproc
	.def	_ZL24stbi__expand_png_paletteP9stbi__pngPhii;	.scl	3;	.type	32;	.endef
	.seh_proc	_ZL24stbi__expand_png_paletteP9stbi__pngPhii
_ZL24stbi__expand_png_paletteP9stbi__pngPhii:
	pushq	%rbp
	.seh_pushreg	%rbp
	movq	%rsp, %rbp
	.seh_setframe	%rbp, 0
	subq	$80, %rsp
	.seh_stackalloc	80
	.seh_endprologue
	movq	%rcx, 16(%rbp)
	movq	%rdx, 24(%rbp)
	movl	%r8d, 32(%rbp)
	movl	%r9d, 40(%rbp)
	movq	16(%rbp), %rax
	movq	(%rax), %rax
	movl	(%rax), %edx
	movq	16(%rbp), %rax
	movq	(%rax), %rax
	movl	4(%rax), %eax
	imull	%edx, %eax
	movl	%eax, -20(%rbp)
	movq	16(%rbp), %rax
	movq	24(%rax), %rax
	movq	%rax, -32(%rbp)
	movl	40(%rbp), %eax
	imull	-20(%rbp), %eax
	movl	%eax, %eax
	movq	%rax, %rcx
	call	_ZL12stbi__mallocy
	movq	%rax, -16(%rbp)
	cmpq	$0, -16(%rbp)
	jne	.L996
	leaq	.LC6(%rip), %rcx
	call	_ZL9stbi__errPKc
	jmp	.L997
.L996:
	movq	-16(%rbp), %rax
	movq	%rax, -40(%rbp)
	cmpl	$3, 40(%rbp)
	jne	.L998
	movl	$0, -4(%rbp)
.L1000:
	movl	-4(%rbp), %eax
	cmpl	-20(%rbp), %eax
	jnb	.L1001
	movl	-4(%rbp), %eax
	movq	-32(%rbp), %rdx
	addq	%rdx, %rax
	movzbl	(%rax), %eax
	movzbl	%al, %eax
	sall	$2, %eax
	movl	%eax, -44(%rbp)
	movl	-44(%rbp), %eax
	cltq
	movq	24(%rbp), %rdx
	addq	%rdx, %rax
	movzbl	(%rax), %eax
	movq	-16(%rbp), %rdx
	movb	%al, (%rdx)
	movl	-44(%rbp), %eax
	cltq
	leaq	1(%rax), %rdx
	movq	24(%rbp), %rax
	addq	%rdx, %rax
	movq	-16(%rbp), %rdx
	addq	$1, %rdx
	movzbl	(%rax), %eax
	movb	%al, (%rdx)
	movl	-44(%rbp), %eax
	cltq
	leaq	2(%rax), %rdx
	movq	24(%rbp), %rax
	addq	%rdx, %rax
	movq	-16(%rbp), %rdx
	addq	$2, %rdx
	movzbl	(%rax), %eax
	movb	%al, (%rdx)
	addq	$3, -16(%rbp)
	addl	$1, -4(%rbp)
	jmp	.L1000
.L998:
	movl	$0, -4(%rbp)
.L1002:
	movl	-4(%rbp), %eax
	cmpl	-20(%rbp), %eax
	jnb	.L1001
	movl	-4(%rbp), %eax
	movq	-32(%rbp), %rdx
	addq	%rdx, %rax
	movzbl	(%rax), %eax
	movzbl	%al, %eax
	sall	$2, %eax
	movl	%eax, -48(%rbp)
	movl	-48(%rbp), %eax
	cltq
	movq	24(%rbp), %rdx
	addq	%rdx, %rax
	movzbl	(%rax), %eax
	movq	-16(%rbp), %rdx
	movb	%al, (%rdx)
	movl	-48(%rbp), %eax
	cltq
	leaq	1(%rax), %rdx
	movq	24(%rbp), %rax
	addq	%rdx, %rax
	movq	-16(%rbp), %rdx
	addq	$1, %rdx
	movzbl	(%rax), %eax
	movb	%al, (%rdx)
	movl	-48(%rbp), %eax
	cltq
	leaq	2(%rax), %rdx
	movq	24(%rbp), %rax
	addq	%rdx, %rax
	movq	-16(%rbp), %rdx
	addq	$2, %rdx
	movzbl	(%rax), %eax
	movb	%al, (%rdx)
	movl	-48(%rbp), %eax
	cltq
	leaq	3(%rax), %rdx
	movq	24(%rbp), %rax
	addq	%rdx, %rax
	movq	-16(%rbp), %rdx
	addq	$3, %rdx
	movzbl	(%rax), %eax
	movb	%al, (%rdx)
	addq	$4, -16(%rbp)
	addl	$1, -4(%rbp)
	jmp	.L1002
.L1001:
	movq	16(%rbp), %rax
	movq	24(%rax), %rax
	movq	%rax, %rcx
	call	free
	movq	16(%rbp), %rax
	movq	-40(%rbp), %rdx
	movq	%rdx, 24(%rax)
	movl	$1, %eax
.L997:
	addq	$80, %rsp
	popq	%rbp
	ret
	.seh_endproc
.lcomm _ZL27stbi__unpremultiply_on_load,4,4
.lcomm _ZL20stbi__de_iphone_flag,4,4
	.globl	stbi_set_unpremultiply_on_load
	.def	stbi_set_unpremultiply_on_load;	.scl	2;	.type	32;	.endef
	.seh_proc	stbi_set_unpremultiply_on_load
stbi_set_unpremultiply_on_load:
	pushq	%rbp
	.seh_pushreg	%rbp
	movq	%rsp, %rbp
	.seh_setframe	%rbp, 0
	.seh_endprologue
	movl	%ecx, 16(%rbp)
	movl	16(%rbp), %eax
	movl	%eax, _ZL27stbi__unpremultiply_on_load(%rip)
	nop
	popq	%rbp
	ret
	.seh_endproc
	.globl	stbi_convert_iphone_png_to_rgb
	.def	stbi_convert_iphone_png_to_rgb;	.scl	2;	.type	32;	.endef
	.seh_proc	stbi_convert_iphone_png_to_rgb
stbi_convert_iphone_png_to_rgb:
	pushq	%rbp
	.seh_pushreg	%rbp
	movq	%rsp, %rbp
	.seh_setframe	%rbp, 0
	.seh_endprologue
	movl	%ecx, 16(%rbp)
	movl	16(%rbp), %eax
	movl	%eax, _ZL20stbi__de_iphone_flag(%rip)
	nop
	popq	%rbp
	ret
	.seh_endproc
	.section .rdata,"dr"
.LC62:
	.ascii "s->img_out_n == 4\0"
	.text
	.def	_ZL15stbi__de_iphoneP9stbi__png;	.scl	3;	.type	32;	.endef
	.seh_proc	_ZL15stbi__de_iphoneP9stbi__png
_ZL15stbi__de_iphoneP9stbi__png:
	pushq	%rbp
	.seh_pushreg	%rbp
	movq	%rsp, %rbp
	.seh_setframe	%rbp, 0
	subq	$64, %rsp
